///////////////////////////////////////////////////////////////////////////////
//                                                                            /
// IAR C/C++ Compiler V6.11.1.50453 for Atmel AVR       11/Jan/2016  19:35:45 /
// Copyright 1996-2011 IAR Systems AB.                                        /
//                                                                            /
//    Source file  =  D:\SOC2015\TEMP\SOC_pachet_examen\Mas_HighFqFuncGen_Sen /
//                    dSeri\main.c                                            /
//    Command line =  D:\SOC2015\TEMP\SOC_pachet_examen\Mas_HighFqFuncGen_Sen /
//                    dSeri\main.c --cpu=m16 -ms -o                           /
//                    D:\SOC2015\TEMP\SOC_pachet_examen\Mas_HighFqFuncGen_Sen /
//                    dSeri\Debug\Obj\ -lC D:\SOC2015\TEMP\SOC_pachet_examen\ /
//                    Mas_HighFqFuncGen_SendSeri\Debug\List\ -lA              /
//                    D:\SOC2015\TEMP\SOC_pachet_examen\Mas_HighFqFuncGen_Sen /
//                    dSeri\Debug\List\ --initializers_in_flash --no_cse      /
//                    --no_inline --no_code_motion --no_cross_call            /
//                    --no_clustering --no_tbaa --debug                       /
//                    -DENABLE_BIT_DEFINITIONS -e --eeprom_size 512 --clib    /
//                    -On                                                     /
//    List file    =  D:\SOC2015\TEMP\SOC_pachet_examen\Mas_HighFqFuncGen_Sen /
//                    dSeri\Debug\List\main.s90                               /
//                                                                            /
//                                                                            /
///////////////////////////////////////////////////////////////////////////////

        NAME main

        RTMODEL "__64bit_doubles", "disabled"
        RTMODEL "__SystemLibrary", "CLib"
        RTMODEL "__cpu", "3"
        RTMODEL "__cpu_name", "ATmega16"
        RTMODEL "__enhanced_core", "enabled"
        RTMODEL "__has_elpm", "false"
        RTMODEL "__memory_model", "2"
        RTMODEL "__rt_version", "3"

        RSEG CSTACK:DATA:NOROOT(0)
        RSEG RSTACK:DATA:NOROOT(0)

        EXTERN ?LL_ADD_L12
        EXTERN ?LL_MUL_L12
        EXTERN ?PROLOGUE16_L09
        EXTERN ?Register_R10_is_cg_reg
        EXTERN ?Register_R11_is_cg_reg
        EXTERN ?Register_R12_is_cg_reg
        EXTERN ?Register_R13_is_cg_reg
        EXTERN ?Register_R14_is_cg_reg
        EXTERN ?Register_R15_is_cg_reg
        EXTERN ?Register_R8_is_cg_reg
        EXTERN ?Register_R9_is_cg_reg
        EXTERN ?need_segment_init

        PUBWEAK `?<Segment init: NEAR_I>`
        PUBWEAK `?<Segment init: NEAR_Z>`
        PUBWEAK `??isr_TIMER0_COMP_vect??INTVEC 76`
        PUBWEAK `??isr_TIMER1_OVF_vect??INTVEC 32`
        PUBWEAK _A_DDRD
        PUBWEAK _A_OCR0
        PUBWEAK _A_TCCR0
        PUBWEAK _A_TCCR1B
        PUBWEAK _A_TCNT1
        PUBWEAK _A_TIMSK
        PUBWEAK __?EEARH
        PUBWEAK __?EEARL
        PUBWEAK __?EECR
        PUBWEAK __?EEDR
        PUBWEAK __Constant_10000_0
        PUBLIC isr_TIMER0_COMP_vect
        FUNCTION isr_TIMER0_COMP_vect,0231H
        ARGFRAME CSTACK, 0, STACK
        LOCFRAME CSTACK, 5, STACK
        LOCFRAME RSTACK, 2, STACK
        PUBLIC isr_TIMER1_OVF_vect
        FUNCTION isr_TIMER1_OVF_vect,0231H
        ARGFRAME CSTACK, 0, STACK
        LOCFRAME CSTACK, 5, STACK
        LOCFRAME RSTACK, 2, STACK
        PUBLIC main
        FUNCTION main,021a03H
        ARGFRAME CSTACK, 0, STACK
        LOCFRAME CSTACK, 24, STACK
        LOCFRAME RSTACK, 4, STACK
        PUBLIC nrOvf
        PUBLIC softCount
        
          CFI Names cfiNames0
          CFI StackFrame CFA_Y Y DATA
          CFI StackFrame CFA_SP SP DATA
          CFI VirtualResource ?RetPad:1, ?RetHigh:8, ?RetLow:8, ?Ret:17
          CFI Resource R0:8, R1:8, R2:8, R3:8, R4:8, R5:8, R6:8, R7:8, R8:8, R9:8
          CFI Resource R10:8, R11:8, R12:8, R13:8, R14:8, R15:8, R16:8, R17:8
          CFI Resource R18:8, R19:8, R20:8, R21:8, R22:8, R23:8, R24:8, R25:8
          CFI Resource R26:8, R27:8, R28:8, R29:8, R30:8, R31:8
          CFI Resource ?RetHighByteMask:8, SP:16, SPH:8, SPL:8, Y:16
          CFI ResourceParts ?Ret ?RetHigh, ?RetLow, ?RetPad
          CFI ResourceParts SP SPH, SPL
          CFI ResourceParts Y R29, R28
          CFI EndNames cfiNames0
        
          CFI Common cfiCommon0 Using cfiNames0
          CFI CodeAlign 1
          CFI DataAlign 1
          CFI ReturnAddress ?Ret CODE
          CFI CFA_Y Y+0
          CFI CFA_SP SP+2
          CFI ?RetPad 0
          CFI ?RetHigh and(load(1, DATA, sub(CFA_SP, 1)), ?RetHighByteMask)
          CFI ?RetLow Frame(CFA_SP, 0)
          CFI ?Ret Concat
          CFI R0 SameValue
          CFI R1 SameValue
          CFI R2 SameValue
          CFI R3 SameValue
          CFI R4 SameValue
          CFI R5 SameValue
          CFI R6 SameValue
          CFI R7 SameValue
          CFI R8 SameValue
          CFI R9 SameValue
          CFI R10 SameValue
          CFI R11 SameValue
          CFI R12 SameValue
          CFI R13 SameValue
          CFI R14 SameValue
          CFI R15 SameValue
          CFI R16 SameValue
          CFI R17 SameValue
          CFI R18 SameValue
          CFI R19 SameValue
          CFI R20 SameValue
          CFI R21 SameValue
          CFI R22 SameValue
          CFI R23 SameValue
          CFI R24 SameValue
          CFI R25 SameValue
          CFI R26 SameValue
          CFI R27 SameValue
          CFI R28 Undefined
          CFI R29 Undefined
          CFI R30 SameValue
          CFI R31 SameValue
          CFI ?RetHighByteMask SameValue
          CFI SPH Undefined
          CFI SPL Undefined
          CFI EndCommon cfiCommon0
        
        
          CFI Common cfiCommon1 Using cfiNames0
          CFI CodeAlign 1
          CFI DataAlign 1
          CFI ReturnAddress ?Ret CODE
          CFI CFA_Y Y+0
          CFI CFA_SP SP+2
          CFI ?RetPad 0
          CFI ?RetHigh and(load(1, DATA, sub(CFA_SP, 1)), ?RetHighByteMask)
          CFI ?RetLow Frame(CFA_SP, 0)
          CFI ?Ret Concat
          CFI R0 Undefined
          CFI R1 Undefined
          CFI R2 Undefined
          CFI R3 Undefined
          CFI R4 SameValue
          CFI R5 SameValue
          CFI R6 SameValue
          CFI R7 SameValue
          CFI R8 SameValue
          CFI R9 SameValue
          CFI R10 SameValue
          CFI R11 SameValue
          CFI R12 SameValue
          CFI R13 SameValue
          CFI R14 SameValue
          CFI R15 SameValue
          CFI R16 Undefined
          CFI R17 Undefined
          CFI R18 Undefined
          CFI R19 Undefined
          CFI R20 Undefined
          CFI R21 Undefined
          CFI R22 Undefined
          CFI R23 Undefined
          CFI R24 SameValue
          CFI R25 SameValue
          CFI R26 SameValue
          CFI R27 SameValue
          CFI R28 Undefined
          CFI R29 Undefined
          CFI R30 Undefined
          CFI R31 Undefined
          CFI ?RetHighByteMask SameValue
          CFI SPH Undefined
          CFI SPL Undefined
          CFI EndCommon cfiCommon1
        
isr_TIMER0_COMP_vect SYMBOL "isr_TIMER0_COMP_vect"
`??isr_TIMER0_COMP_vect??INTVEC 76` SYMBOL "??INTVEC 76", isr_TIMER0_COMP_vect
isr_TIMER1_OVF_vect SYMBOL "isr_TIMER1_OVF_vect"
`??isr_TIMER1_OVF_vect??INTVEC 32` SYMBOL "??INTVEC 32", isr_TIMER1_OVF_vect

        EXTERN USART_init
        FUNCTION USART_init,0202H
        ARGFRAME RSTACK, 0, STACK
        EXTERN USART_transmit
        FUNCTION USART_transmit,0202H
        ARGFRAME RSTACK, 0, STACK
        EXTERN USART_transmit_ulonglong
        FUNCTION USART_transmit_ulonglong,0202H
        ARGFRAME RSTACK, 0, STACK

// D:\SOC2015\TEMP\SOC_pachet_examen\Mas_HighFqFuncGen_SendSeri\main.c
//    1 #include<iom16.h>

        ASEGN ABSOLUTE:DATA:NOROOT,05cH
// union <unnamed> volatile __io _A_OCR0
_A_OCR0:
        DS8 1

        ASEGN ABSOLUTE:DATA:NOROOT,059H
// union <unnamed> volatile __io _A_TIMSK
_A_TIMSK:
        DS8 1

        ASEGN ABSOLUTE:DATA:NOROOT,053H
// union <unnamed> volatile __io _A_TCCR0
_A_TCCR0:
        DS8 1

        ASEGN ABSOLUTE:DATA:NOROOT,04eH
// union <unnamed> volatile __io _A_TCCR1B
_A_TCCR1B:
        DS8 1

        ASEGN ABSOLUTE:DATA:NOROOT,04cH
// union <unnamed> volatile __io _A_TCNT1
_A_TCNT1:
        DS8 2

        ASEGN ABSOLUTE:DATA:NOROOT,031H
// union <unnamed> volatile __io _A_DDRD
_A_DDRD:
        DS8 1
//    2 #include<inavr.h>
//    3 #include "usart.h"
//    4 

        RSEG NEAR_Z:DATA:NOROOT(0)
        REQUIRE `?<Segment init: NEAR_Z>`
//    5 unsigned int nrOvf;
nrOvf:
        DS8 2

        RSEG NEAR_Z:DATA:NOROOT(0)
        REQUIRE `?<Segment init: NEAR_Z>`
//    6 unsigned int softCount;
softCount:
        DS8 2
//    7 
//    8 #pragma vector = TIMER0_COMP_vect

        RSEG CODE:CODE:NOROOT(1)
//    9 __interrupt void isr_TIMER0_COMP_vect()
isr_TIMER0_COMP_vect:
          CFI Block cfiBlock0 Using cfiCommon0
          CFI Function isr_TIMER0_COMP_vect
//   10 {
        ST      -Y, R31
          CFI R31 Frame(CFA_Y, -1)
          CFI CFA_Y Y+1
        ST      -Y, R30
          CFI R30 Frame(CFA_Y, -2)
          CFI CFA_Y Y+2
        ST      -Y, R18
          CFI R18 Frame(CFA_Y, -3)
          CFI CFA_Y Y+3
        ST      -Y, R17
          CFI R17 Frame(CFA_Y, -4)
          CFI CFA_Y Y+4
        ST      -Y, R16
          CFI R16 Frame(CFA_Y, -5)
          CFI CFA_Y Y+5
        IN      R18, 0x3F
//   11   softCount++;
        LDI     R30, LOW(softCount)
        LDI     R31, (softCount) >> 8
        LD      R16, Z
        LDD     R17, Z+1
        SUBI    R16, 255
        SBCI    R17, 255
        ST      Z, R16
        STD     Z+1, R17
//   12 }
        OUT     0x3F, R18
        LD      R16, Y+
          CFI R16 SameValue
          CFI CFA_Y Y+4
        LD      R17, Y+
          CFI R17 SameValue
          CFI CFA_Y Y+3
        LD      R18, Y+
          CFI R18 SameValue
          CFI CFA_Y Y+2
        LD      R30, Y+
          CFI R30 SameValue
          CFI CFA_Y Y+1
        LD      R31, Y+
          CFI R31 SameValue
          CFI CFA_Y Y+0
        RETI
          CFI EndBlock cfiBlock0
//   13 
//   14 #pragma vector = TIMER1_OVF_vect

        RSEG CODE:CODE:NOROOT(1)
//   15 __interrupt void isr_TIMER1_OVF_vect()
isr_TIMER1_OVF_vect:
          CFI Block cfiBlock1 Using cfiCommon0
          CFI Function isr_TIMER1_OVF_vect
//   16 {
        ST      -Y, R31
          CFI R31 Frame(CFA_Y, -1)
          CFI CFA_Y Y+1
        ST      -Y, R30
          CFI R30 Frame(CFA_Y, -2)
          CFI CFA_Y Y+2
        ST      -Y, R18
          CFI R18 Frame(CFA_Y, -3)
          CFI CFA_Y Y+3
        ST      -Y, R17
          CFI R17 Frame(CFA_Y, -4)
          CFI CFA_Y Y+4
        ST      -Y, R16
          CFI R16 Frame(CFA_Y, -5)
          CFI CFA_Y Y+5
        IN      R18, 0x3F
//   17   nrOvf++;
        LDI     R30, LOW(nrOvf)
        LDI     R31, (nrOvf) >> 8
        LD      R16, Z
        LDD     R17, Z+1
        SUBI    R16, 255
        SBCI    R17, 255
        ST      Z, R16
        STD     Z+1, R17
//   18 }
        OUT     0x3F, R18
        LD      R16, Y+
          CFI R16 SameValue
          CFI CFA_Y Y+4
        LD      R17, Y+
          CFI R17 SameValue
          CFI CFA_Y Y+3
        LD      R18, Y+
          CFI R18 SameValue
          CFI CFA_Y Y+2
        LD      R30, Y+
          CFI R30 SameValue
          CFI CFA_Y Y+1
        LD      R31, Y+
          CFI R31 SameValue
          CFI CFA_Y Y+0
        RETI
          CFI EndBlock cfiBlock1
//   19 

        RSEG CODE:CODE:NOROOT(1)
//   20 void main( void )
main:
          CFI Block cfiBlock2 Using cfiCommon1
          CFI Function main
//   21 {
        FUNCALL main, USART_init
        LOCFRAME CSTACK, 24, STACK
        LOCFRAME RSTACK, 2, STACK
        ARGFRAME RSTACK, 0, STACK
        FUNCALL main, USART_transmit
        LOCFRAME CSTACK, 24, STACK
        LOCFRAME RSTACK, 2, STACK
        ARGFRAME RSTACK, 0, STACK
        FUNCALL main, USART_transmit
        LOCFRAME CSTACK, 24, STACK
        LOCFRAME RSTACK, 2, STACK
        ARGFRAME RSTACK, 0, STACK
        FUNCALL main, USART_transmit
        LOCFRAME CSTACK, 24, STACK
        LOCFRAME RSTACK, 2, STACK
        ARGFRAME RSTACK, 0, STACK
        FUNCALL main, USART_transmit
        LOCFRAME CSTACK, 24, STACK
        LOCFRAME RSTACK, 2, STACK
        ARGFRAME RSTACK, 0, STACK
        FUNCALL main, USART_transmit_ulonglong
        LOCFRAME CSTACK, 24, STACK
        LOCFRAME RSTACK, 2, STACK
        ARGFRAME RSTACK, 0, STACK
        FUNCALL main, USART_transmit
        LOCFRAME CSTACK, 24, STACK
        LOCFRAME RSTACK, 2, STACK
        ARGFRAME RSTACK, 0, STACK
        FUNCALL main, USART_transmit
        LOCFRAME CSTACK, 24, STACK
        LOCFRAME RSTACK, 2, STACK
        ARGFRAME RSTACK, 0, STACK
        FUNCALL main, USART_transmit
        LOCFRAME CSTACK, 24, STACK
        LOCFRAME RSTACK, 2, STACK
        ARGFRAME RSTACK, 0, STACK
        FUNCALL main, USART_transmit
        LOCFRAME CSTACK, 24, STACK
        LOCFRAME RSTACK, 2, STACK
        ARGFRAME RSTACK, 0, STACK
        FUNCALL main, USART_transmit
        LOCFRAME CSTACK, 24, STACK
        LOCFRAME RSTACK, 2, STACK
        ARGFRAME RSTACK, 0, STACK
        CALL    ?PROLOGUE16_L09
          CFI R15 Frame(CFA_Y, -1)
          CFI R14 Frame(CFA_Y, -2)
          CFI R13 Frame(CFA_Y, -3)
          CFI R12 Frame(CFA_Y, -4)
          CFI R11 Frame(CFA_Y, -5)
          CFI R10 Frame(CFA_Y, -6)
          CFI R9 Frame(CFA_Y, -7)
          CFI R8 Frame(CFA_Y, -8)
          CFI R7 Frame(CFA_Y, -9)
          CFI R6 Frame(CFA_Y, -10)
          CFI R5 Frame(CFA_Y, -11)
          CFI R4 Frame(CFA_Y, -12)
          CFI R27 Frame(CFA_Y, -13)
          CFI R26 Frame(CFA_Y, -14)
          CFI R25 Frame(CFA_Y, -15)
          CFI R24 Frame(CFA_Y, -16)
          CFI CFA_Y Y+16
        REQUIRE ?Register_R8_is_cg_reg
        REQUIRE ?Register_R9_is_cg_reg
        REQUIRE ?Register_R10_is_cg_reg
        REQUIRE ?Register_R11_is_cg_reg
        REQUIRE ?Register_R12_is_cg_reg
        REQUIRE ?Register_R13_is_cg_reg
        REQUIRE ?Register_R14_is_cg_reg
        REQUIRE ?Register_R15_is_cg_reg
        SBIW    R29:R28, 8
          CFI CFA_Y Y+24
//   22   USART_init(BAUD_RATE);
        LDI     R16, 12
        LDI     R17, 0
        CALL    USART_init
//   23   DDRD |= (1 << PD1);
        SBI     0x11, 0x01
//   24   
//   25   TCCR0 |= (1 << WGM01) | (1 << CS02) | (1 << CS00);
        IN      R16, 0x33
        ORI     R16, 0x0D
        OUT     0x33, R16
//   26   TIMSK |= (1 << OCIE0);
        IN      R16, 0x39
        ORI     R16, 0x02
        OUT     0x39, R16
//   27   OCR0 = 247;
        LDI     R16, 247
        OUT     0x3C, R16
//   28   
//   29   TCCR1B |= (1 << CS12) | (1 << CS11);
        IN      R16, 0x2E
        ORI     R16, 0x06
        OUT     0x2E, R16
//   30   TIMSK |= (1 << TOIE1);
        IN      R16, 0x39
        ORI     R16, 0x04
        OUT     0x39, R16
//   31    __enable_interrupt();
        SEI
//   32   
//   33   unsigned long long fq;
//   34   while(1)
//   35   {
//   36     if(softCount == 16)
??main_0:
        LDS     R16, softCount
        LDS     R17, (softCount + 1)
        CPI     R16, 16
        LDI     R18, 0
        CPC     R17, R18
        BRNE    ??main_0
//   37     {     
//   38       fq = nrOvf;
        LDS     R16, nrOvf
        LDS     R17, (nrOvf + 1)
        LDI     R18, 0
        LDI     R19, 0
        LDI     R20, 0
        LDI     R21, 0
        LDI     R22, 0
        LDI     R23, 0
        MOVW    R9:R8, R17:R16
        MOVW    R11:R10, R19:R18
        MOVW    R13:R12, R21:R20
        MOVW    R15:R14, R23:R22
//   39       fq = fq * 65536 + TCNT1;
        IN      R16, 0x2C
        IN      R17, 0x2D
        LDI     R18, 0
        LDI     R19, 0
        LDI     R20, 0
        LDI     R21, 0
        LDI     R22, 0
        LDI     R23, 0
        ST      Y, R16
        STD     Y+1, R17
        STD     Y+2, R18
        STD     Y+3, R19
        STD     Y+4, R20
        STD     Y+5, R21
        STD     Y+6, R22
        STD     Y+7, R23
        MOVW    R17:R16, R9:R8
        MOVW    R19:R18, R11:R10
        MOVW    R21:R20, R13:R12
        MOVW    R23:R22, R15:R14
        LDI     R26, LOW(__Constant_10000_0)
        LDI     R27, (__Constant_10000_0) >> 8
        CALL    ?LL_MUL_L12
        MOVW    R31:R30, R29:R28
        CALL    ?LL_ADD_L12
        MOVW    R9:R8, R17:R16
        MOVW    R11:R10, R19:R18
        MOVW    R13:R12, R21:R20
        MOVW    R15:R14, R23:R22
//   40       
//   41       USART_transmit('<');
        LDI     R16, 60
        CALL    USART_transmit
//   42       USART_transmit('F');
        LDI     R16, 70
        CALL    USART_transmit
//   43       USART_transmit('Q');
        LDI     R16, 81
        CALL    USART_transmit
//   44       USART_transmit('=');
        LDI     R16, 61
        CALL    USART_transmit
//   45       USART_transmit_ulonglong(fq);
        MOVW    R17:R16, R9:R8
        MOVW    R19:R18, R11:R10
        MOVW    R21:R20, R13:R12
        MOVW    R23:R22, R15:R14
        CALL    USART_transmit_ulonglong
//   46       USART_transmit('H');
        LDI     R16, 72
        CALL    USART_transmit
//   47       USART_transmit('z');
        LDI     R16, 122
        CALL    USART_transmit
//   48       USART_transmit('>');
        LDI     R16, 62
        CALL    USART_transmit
//   49       USART_transmit('\r');
        LDI     R16, 13
        CALL    USART_transmit
//   50       USART_transmit('\n');
        LDI     R16, 10
        CALL    USART_transmit
//   51       
//   52       softCount = 0;
        LDI     R16, 0
        LDI     R17, 0
        STS     softCount, R16
        STS     (softCount + 1), R17
//   53       nrOvf = 0;
        LDI     R16, 0
        LDI     R17, 0
        STS     nrOvf, R16
        STS     (nrOvf + 1), R17
//   54       TCNT1 = 0;
        LDI     R16, 0
        LDI     R17, 0
        OUT     0x2D, R17
        OUT     0x2C, R16
        RJMP    ??main_0
          CFI EndBlock cfiBlock2
        REQUIRE _A_DDRD
        REQUIRE _A_TCCR0
        REQUIRE _A_TIMSK
        REQUIRE _A_OCR0
        REQUIRE _A_TCCR1B
        REQUIRE _A_TCNT1
//   55     }
//   56   }
//   57 }

        ASEGN ABSOLUTE:DATA:NOROOT,01cH
__?EECR:

        ASEGN ABSOLUTE:DATA:NOROOT,01dH
__?EEDR:

        ASEGN ABSOLUTE:DATA:NOROOT,01eH
__?EEARL:

        ASEGN ABSOLUTE:DATA:NOROOT,01fH
__?EEARH:

        COMMON INTVEC:CODE:ROOT(1)
        ORG 32
`??isr_TIMER1_OVF_vect??INTVEC 32`:
        JMP     isr_TIMER1_OVF_vect

        COMMON INTVEC:CODE:ROOT(1)
        ORG 76
`??isr_TIMER0_COMP_vect??INTVEC 76`:
        JMP     isr_TIMER0_COMP_vect

        RSEG INITTAB:CODE:NOROOT(0)
`?<Segment init: NEAR_Z>`:
        DC16    SFE(NEAR_Z) - SFB(NEAR_Z)
        DC16    SFB(NEAR_Z)
        DC16    0
        REQUIRE ?need_segment_init

        RSEG NEAR_ID:CODE:NOROOT(0)
`?<Initializer for 64 Bit Constant>_0`:
        DD 65536, 0

        RSEG NEAR_I:DATA:NOROOT(0)
        REQUIRE `?<Segment init: NEAR_I>`
__Constant_10000_0:
        DS8 8
        REQUIRE `?<Initializer for 64 Bit Constant>_0`

        RSEG INITTAB:CODE:NOROOT(0)
`?<Segment init: NEAR_I>`:
        DC16    SFE(NEAR_I) - SFB(NEAR_I)
        DC16    SFB(NEAR_I)
        DC16    SFB(NEAR_ID)
        REQUIRE ?need_segment_init

        END
// 
//   7 bytes in segment ABSOLUTE
// 336 bytes in segment CODE
//  12 bytes in segment INITTAB
//   8 bytes in segment INTVEC
//   8 bytes in segment NEAR_I
//   8 bytes in segment NEAR_ID
//   4 bytes in segment NEAR_Z
// 
// 336 bytes of CODE memory (+ 28 bytes shared)
//   4 bytes of DATA memory (+ 15 bytes shared)
//
//Errors: none
//Warnings: none
