///////////////////////////////////////////////////////////////////////////////
//                                                                            /
// IAR C/C++ Compiler V6.11.1.50453 for Atmel AVR       29/Dec/2015  18:25:00 /
// Copyright 1996-2011 IAR Systems AB.                                        /
//                                                                            /
//    Source file  =  D:\soc2015\1305B\LucruExtra\LED_pulse_TIM0+TIM1\main.c  /
//    Command line =  D:\soc2015\1305B\LucruExtra\LED_pulse_TIM0+TIM1\main.c  /
//                    --cpu=m16 -ms -o D:\soc2015\1305B\LucruExtra\LED_pulse_ /
//                    TIM0+TIM1\Debug\Obj\ -lC D:\soc2015\1305B\LucruExtra\LE /
//                    D_pulse_TIM0+TIM1\Debug\List\ -lA                       /
//                    D:\soc2015\1305B\LucruExtra\LED_pulse_TIM0+TIM1\Debug\L /
//                    ist\ --initializers_in_flash --no_cse --no_inline       /
//                    --no_code_motion --no_cross_call --no_clustering        /
//                    --no_tbaa --debug -DENABLE_BIT_DEFINITIONS -e           /
//                    --eeprom_size 512 --clib -On                            /
//    List file    =  D:\soc2015\1305B\LucruExtra\LED_pulse_TIM0+TIM1\Debug\L /
//                    ist\main.s90                                            /
//                                                                            /
//                                                                            /
///////////////////////////////////////////////////////////////////////////////

        NAME main

        RTMODEL "__64bit_doubles", "disabled"
        RTMODEL "__SystemLibrary", "CLib"
        RTMODEL "__cpu", "3"
        RTMODEL "__cpu_name", "ATmega16"
        RTMODEL "__enhanced_core", "enabled"
        RTMODEL "__has_elpm", "false"
        RTMODEL "__memory_model", "2"
        RTMODEL "__rt_version", "3"

        RSEG CSTACK:DATA:NOROOT(0)
        RSEG RSTACK:DATA:NOROOT(0)

        EXTERN ?L_EC_MUL_L03
        EXTERN ?PROLOGUE3_L09
        EXTERN ?UL_DIVMOD_L03
        EXTERN ?need_segment_init

        PUBWEAK `?<Segment init: NEAR_Z>`
        PUBWEAK `??isr_TIMER0_COMP_vect??INTVEC 76`
        PUBWEAK _A_DDRD
        PUBWEAK _A_ICR1
        PUBWEAK _A_OCR0
        PUBWEAK _A_OCR1A
        PUBWEAK _A_TCCR0
        PUBWEAK _A_TCCR1A
        PUBWEAK _A_TCCR1B
        PUBWEAK _A_TIMSK
        PUBWEAK __?EEARH
        PUBWEAK __?EEARL
        PUBWEAK __?EECR
        PUBWEAK __?EEDR
        PUBLIC isr_TIMER0_COMP_vect
        FUNCTION isr_TIMER0_COMP_vect,0231H
        ARGFRAME CSTACK, 0, STACK
        LOCFRAME CSTACK, 3, STACK
        LOCFRAME RSTACK, 2, STACK
        PUBLIC main
        FUNCTION main,0a03H
        ARGFRAME CSTACK, 0, STACK
        LOCFRAME CSTACK, 3, STACK
        LOCFRAME RSTACK, 4, STACK
        PUBLIC softFlag
        
          CFI Names cfiNames0
          CFI StackFrame CFA_Y Y DATA
          CFI StackFrame CFA_SP SP DATA
          CFI VirtualResource ?RetPad:1, ?RetHigh:8, ?RetLow:8, ?Ret:17
          CFI Resource R0:8, R1:8, R2:8, R3:8, R4:8, R5:8, R6:8, R7:8, R8:8, R9:8
          CFI Resource R10:8, R11:8, R12:8, R13:8, R14:8, R15:8, R16:8, R17:8
          CFI Resource R18:8, R19:8, R20:8, R21:8, R22:8, R23:8, R24:8, R25:8
          CFI Resource R26:8, R27:8, R28:8, R29:8, R30:8, R31:8
          CFI Resource ?RetHighByteMask:8, SP:16, SPH:8, SPL:8, Y:16
          CFI ResourceParts ?Ret ?RetHigh, ?RetLow, ?RetPad
          CFI ResourceParts SP SPH, SPL
          CFI ResourceParts Y R29, R28
          CFI EndNames cfiNames0
        
          CFI Common cfiCommon0 Using cfiNames0
          CFI CodeAlign 1
          CFI DataAlign 1
          CFI ReturnAddress ?Ret CODE
          CFI CFA_Y Y+0
          CFI CFA_SP SP+2
          CFI ?RetPad 0
          CFI ?RetHigh and(load(1, DATA, sub(CFA_SP, 1)), ?RetHighByteMask)
          CFI ?RetLow Frame(CFA_SP, 0)
          CFI ?Ret Concat
          CFI R0 SameValue
          CFI R1 SameValue
          CFI R2 SameValue
          CFI R3 SameValue
          CFI R4 SameValue
          CFI R5 SameValue
          CFI R6 SameValue
          CFI R7 SameValue
          CFI R8 SameValue
          CFI R9 SameValue
          CFI R10 SameValue
          CFI R11 SameValue
          CFI R12 SameValue
          CFI R13 SameValue
          CFI R14 SameValue
          CFI R15 SameValue
          CFI R16 SameValue
          CFI R17 SameValue
          CFI R18 SameValue
          CFI R19 SameValue
          CFI R20 SameValue
          CFI R21 SameValue
          CFI R22 SameValue
          CFI R23 SameValue
          CFI R24 SameValue
          CFI R25 SameValue
          CFI R26 SameValue
          CFI R27 SameValue
          CFI R28 Undefined
          CFI R29 Undefined
          CFI R30 SameValue
          CFI R31 SameValue
          CFI ?RetHighByteMask SameValue
          CFI SPH Undefined
          CFI SPL Undefined
          CFI EndCommon cfiCommon0
        
        
          CFI Common cfiCommon1 Using cfiNames0
          CFI CodeAlign 1
          CFI DataAlign 1
          CFI ReturnAddress ?Ret CODE
          CFI CFA_Y Y+0
          CFI CFA_SP SP+2
          CFI ?RetPad 0
          CFI ?RetHigh and(load(1, DATA, sub(CFA_SP, 1)), ?RetHighByteMask)
          CFI ?RetLow Frame(CFA_SP, 0)
          CFI ?Ret Concat
          CFI R0 Undefined
          CFI R1 Undefined
          CFI R2 Undefined
          CFI R3 Undefined
          CFI R4 SameValue
          CFI R5 SameValue
          CFI R6 SameValue
          CFI R7 SameValue
          CFI R8 SameValue
          CFI R9 SameValue
          CFI R10 SameValue
          CFI R11 SameValue
          CFI R12 SameValue
          CFI R13 SameValue
          CFI R14 SameValue
          CFI R15 SameValue
          CFI R16 Undefined
          CFI R17 Undefined
          CFI R18 Undefined
          CFI R19 Undefined
          CFI R20 Undefined
          CFI R21 Undefined
          CFI R22 Undefined
          CFI R23 Undefined
          CFI R24 SameValue
          CFI R25 SameValue
          CFI R26 SameValue
          CFI R27 SameValue
          CFI R28 Undefined
          CFI R29 Undefined
          CFI R30 Undefined
          CFI R31 Undefined
          CFI ?RetHighByteMask SameValue
          CFI SPH Undefined
          CFI SPL Undefined
          CFI EndCommon cfiCommon1
        
isr_TIMER0_COMP_vect SYMBOL "isr_TIMER0_COMP_vect"
`??isr_TIMER0_COMP_vect??INTVEC 76` SYMBOL "??INTVEC 76", isr_TIMER0_COMP_vect

// D:\soc2015\1305B\LucruExtra\LED_pulse_TIM0+TIM1\main.c
//    1 #include<iom16.h>

        ASEGN ABSOLUTE:DATA:NOROOT,05cH
// union <unnamed> volatile __io _A_OCR0
_A_OCR0:
        DS8 1

        ASEGN ABSOLUTE:DATA:NOROOT,059H
// union <unnamed> volatile __io _A_TIMSK
_A_TIMSK:
        DS8 1

        ASEGN ABSOLUTE:DATA:NOROOT,053H
// union <unnamed> volatile __io _A_TCCR0
_A_TCCR0:
        DS8 1

        ASEGN ABSOLUTE:DATA:NOROOT,04fH
// union <unnamed> volatile __io _A_TCCR1A
_A_TCCR1A:
        DS8 1

        ASEGN ABSOLUTE:DATA:NOROOT,04eH
// union <unnamed> volatile __io _A_TCCR1B
_A_TCCR1B:
        DS8 1

        ASEGN ABSOLUTE:DATA:NOROOT,04aH
// union <unnamed> volatile __io _A_OCR1A
_A_OCR1A:
        DS8 2

        ASEGN ABSOLUTE:DATA:NOROOT,046H
// union <unnamed> volatile __io _A_ICR1
_A_ICR1:
        DS8 2

        ASEGN ABSOLUTE:DATA:NOROOT,031H
// union <unnamed> volatile __io _A_DDRD
_A_DDRD:
        DS8 1
//    2 #include<inavr.h>
//    3 

        RSEG NEAR_Z:DATA:NOROOT(0)
        REQUIRE `?<Segment init: NEAR_Z>`
//    4 unsigned int softFlag;
softFlag:
        DS8 2
//    5 
//    6 #pragma vector = TIMER0_COMP_vect

        RSEG CODE:CODE:NOROOT(1)
//    7 __interrupt void isr_TIMER0_COMP_vect()
isr_TIMER0_COMP_vect:
          CFI Block cfiBlock0 Using cfiCommon0
          CFI Function isr_TIMER0_COMP_vect
//    8 {
        ST      -Y, R18
          CFI R18 Frame(CFA_Y, -1)
          CFI CFA_Y Y+1
        ST      -Y, R17
          CFI R17 Frame(CFA_Y, -2)
          CFI CFA_Y Y+2
        ST      -Y, R16
          CFI R16 Frame(CFA_Y, -3)
          CFI CFA_Y Y+3
        IN      R18, 0x3F
//    9   softFlag = 1;
        LDI     R16, 1
        LDI     R17, 0
        STS     softFlag, R16
        STS     (softFlag + 1), R17
//   10 }
        OUT     0x3F, R18
        LD      R16, Y+
          CFI R16 SameValue
          CFI CFA_Y Y+2
        LD      R17, Y+
          CFI R17 SameValue
          CFI CFA_Y Y+1
        LD      R18, Y+
          CFI R18 SameValue
          CFI CFA_Y Y+0
        RETI
          CFI EndBlock cfiBlock0
//   11 

        RSEG CODE:CODE:NOROOT(1)
//   12 void main( void )
main:
          CFI Block cfiBlock1 Using cfiCommon1
          CFI Function main
//   13 {
        CALL    ?PROLOGUE3_L09
          CFI R26 Frame(CFA_Y, -1)
          CFI R25 Frame(CFA_Y, -2)
          CFI R24 Frame(CFA_Y, -3)
          CFI CFA_Y Y+3
//   14   TCCR0 = (1 << WGM01) | (0 << WGM00) | (1 << CS02) | (0 << CS01) | (1 << CS00);
        LDI     R16, 13
        OUT     0x33, R16
//   15   OCR0 = 206;
        LDI     R16, 206
        OUT     0x3C, R16
//   16   TIMSK |= (1 << OCIE0);
        IN      R16, 0x39
        ORI     R16, 0x02
        OUT     0x39, R16
//   17   __enable_interrupt();
        SEI
//   18   
//   19   TCCR1A |= (1 << COM1A1) | (0 << COM1A0) | (1 << WGM11) | (0 << WGM10);
        IN      R16, 0x2F
        ORI     R16, 0x82
        OUT     0x2F, R16
//   20   TCCR1B |= (1 << WGM13) | (1 << WGM12) | (0 << CS12) | (1 << CS11) | (0 << CS10);
        IN      R16, 0x2E
        ORI     R16, 0x1A
        OUT     0x2E, R16
//   21   ICR1 = 502;
        LDI     R16, 246
        LDI     R17, 1
        OUT     0x27, R17
        OUT     0x26, R16
//   22   OCR1A = 502 * 5 / 100;
        LDI     R16, 25
        LDI     R17, 0
        OUT     0x2B, R17
        OUT     0x2A, R16
//   23   
//   24   unsigned char direction = 1;
        LDI     R26, 1
//   25   unsigned int duty = 5;
        LDI     R24, 5
        LDI     R25, 0
//   26   unsigned long aux;
//   27   
//   28   DDRD = (1 << PD5);
        LDI     R20, 32
        OUT     0x11, R20
//   29   
//   30   while(1)
//   31   {
//   32     if(softFlag == 1)
??main_0:
        LDS     R20, softFlag
        LDS     R21, (softFlag + 1)
        CPI     R20, 1
        LDI     R22, 0
        CPC     R21, R22
        BRNE    ??main_0
//   33     {
//   34       softFlag = 0;
        LDI     R20, 0
        LDI     R21, 0
        STS     softFlag, R20
        STS     (softFlag + 1), R21
//   35       if(direction == 0)
        TST     R26
        BRNE    ??main_1
//   36       {
//   37         duty = duty - 5;
        SBIW    R25:R24, 5
        RJMP    ??main_2
//   38       }
//   39       else
//   40       {
//   41         duty = duty + 5;
??main_1:
        ADIW    R25:R24, 5
//   42 
//   43       }
//   44       if(duty > 95)
??main_2:
        CPI     R24, 96
        LDI     R20, 0
        CPC     R25, R20
        BRCS    ??main_3
//   45         direction = 0;
        LDI     R26, 0
//   46       if(duty < 5)
??main_3:
        CPI     R24, 5
        LDI     R20, 0
        CPC     R25, R20
        BRCC    ??main_4
//   47         direction = 1;
        LDI     R26, 1
//   48       
//   49       aux = ICR1;
??main_4:
        IN      R20, 0x26
        IN      R21, 0x27
        LDI     R22, 0
        LDI     R23, 0
        MOVW    R17:R16, R21:R20
        MOVW    R19:R18, R23:R22
//   50       aux = aux * duty / 100;
        MOVW    R21:R20, R25:R24
        LDI     R22, 0
        LDI     R23, 0
        CALL    ?L_EC_MUL_L03
        LDI     R20, 100
        LDI     R21, 0
        LDI     R22, 0
        LDI     R23, 0
        CALL    ?UL_DIVMOD_L03
//   51       OCR1A = aux;
        MOVW    R21:R20, R17:R16
        OUT     0x2B, R21
        OUT     0x2A, R20
        RJMP    ??main_0
          CFI EndBlock cfiBlock1
        REQUIRE _A_TCCR0
        REQUIRE _A_OCR0
        REQUIRE _A_TIMSK
        REQUIRE _A_TCCR1A
        REQUIRE _A_TCCR1B
        REQUIRE _A_ICR1
        REQUIRE _A_OCR1A
        REQUIRE _A_DDRD
//   52     }
//   53   }
//   54 }

        ASEGN ABSOLUTE:DATA:NOROOT,01cH
__?EECR:

        ASEGN ABSOLUTE:DATA:NOROOT,01dH
__?EEDR:

        ASEGN ABSOLUTE:DATA:NOROOT,01eH
__?EEARL:

        ASEGN ABSOLUTE:DATA:NOROOT,01fH
__?EEARH:

        COMMON INTVEC:CODE:ROOT(1)
        ORG 76
`??isr_TIMER0_COMP_vect??INTVEC 76`:
        JMP     isr_TIMER0_COMP_vect

        RSEG INITTAB:CODE:NOROOT(0)
`?<Segment init: NEAR_Z>`:
        DC16    SFE(NEAR_Z) - SFB(NEAR_Z)
        DC16    SFB(NEAR_Z)
        DC16    0
        REQUIRE ?need_segment_init

        END
// 
//  10 bytes in segment ABSOLUTE
// 188 bytes in segment CODE
//   6 bytes in segment INITTAB
//   4 bytes in segment INTVEC
//   2 bytes in segment NEAR_Z
// 
// 188 bytes of CODE memory (+ 10 bytes shared)
//   2 bytes of DATA memory (+ 10 bytes shared)
//
//Errors: none
//Warnings: none
