///////////////////////////////////////////////////////////////////////////////
//                                                                            /
// IAR C/C++ Compiler V6.11.1.50453 for Atmel AVR       08/Jan/2016  13:41:44 /
// Copyright 1996-2011 IAR Systems AB.                                        /
//                                                                            /
//    Source file  =  F:\Probleme_SOC\CRC\main.c                              /
//    Command line =  F:\Probleme_SOC\CRC\main.c --cpu=m16 -ms -o             /
//                    F:\Probleme_SOC\CRC\Debug\Obj\ -lC                      /
//                    F:\Probleme_SOC\CRC\Debug\List\ -lA                     /
//                    F:\Probleme_SOC\CRC\Debug\List\                         /
//                    --initializers_in_flash --no_cse --no_inline            /
//                    --no_code_motion --no_cross_call --no_clustering        /
//                    --no_tbaa --debug -DENABLE_BIT_DEFINITIONS -e           /
//                    --eeprom_size 512 --clib -On                            /
//    List file    =  F:\Probleme_SOC\CRC\Debug\List\main.s90                 /
//                                                                            /
//                                                                            /
///////////////////////////////////////////////////////////////////////////////

        NAME main

        RTMODEL "__64bit_doubles", "disabled"
        RTMODEL "__SystemLibrary", "CLib"
        RTMODEL "__cpu", "3"
        RTMODEL "__cpu_name", "ATmega16"
        RTMODEL "__enhanced_core", "enabled"
        RTMODEL "__has_elpm", "false"
        RTMODEL "__memory_model", "2"
        RTMODEL "__rt_version", "3"

        RSEG CSTACK:DATA:NOROOT(0)
        RSEG RSTACK:DATA:NOROOT(0)

        EXTERN ?PROLOGUE4_L09

        PUBWEAK __?EEARH
        PUBWEAK __?EEARL
        PUBWEAK __?EECR
        PUBWEAK __?EEDR
        PUBLIC main
        FUNCTION main,021a03H
        ARGFRAME CSTACK, 0, STACK
        LOCFRAME CSTACK, 5, STACK
        LOCFRAME RSTACK, 2, STACK
        PUBLIC min
        FUNCTION min,0203H
        ARGFRAME CSTACK, 0, STACK
        LOCFRAME RSTACK, 2, STACK
        
          CFI Names cfiNames0
          CFI StackFrame CFA_Y Y DATA
          CFI StackFrame CFA_SP SP DATA
          CFI VirtualResource ?RetPad:1, ?RetHigh:8, ?RetLow:8, ?Ret:17
          CFI Resource R0:8, R1:8, R2:8, R3:8, R4:8, R5:8, R6:8, R7:8, R8:8, R9:8
          CFI Resource R10:8, R11:8, R12:8, R13:8, R14:8, R15:8, R16:8, R17:8
          CFI Resource R18:8, R19:8, R20:8, R21:8, R22:8, R23:8, R24:8, R25:8
          CFI Resource R26:8, R27:8, R28:8, R29:8, R30:8, R31:8
          CFI Resource ?RetHighByteMask:8, SP:16, SPH:8, SPL:8, Y:16
          CFI ResourceParts ?Ret ?RetHigh, ?RetLow, ?RetPad
          CFI ResourceParts SP SPH, SPL
          CFI ResourceParts Y R29, R28
          CFI EndNames cfiNames0
        
          CFI Common cfiCommon0 Using cfiNames0
          CFI CodeAlign 1
          CFI DataAlign 1
          CFI ReturnAddress ?Ret CODE
          CFI CFA_Y Y+0
          CFI CFA_SP SP+2
          CFI ?RetPad 0
          CFI ?RetHigh and(load(1, DATA, sub(CFA_SP, 1)), ?RetHighByteMask)
          CFI ?RetLow Frame(CFA_SP, 0)
          CFI ?Ret Concat
          CFI R0 Undefined
          CFI R1 Undefined
          CFI R2 Undefined
          CFI R3 Undefined
          CFI R4 SameValue
          CFI R5 SameValue
          CFI R6 SameValue
          CFI R7 SameValue
          CFI R8 SameValue
          CFI R9 SameValue
          CFI R10 SameValue
          CFI R11 SameValue
          CFI R12 SameValue
          CFI R13 SameValue
          CFI R14 SameValue
          CFI R15 SameValue
          CFI R16 Undefined
          CFI R17 Undefined
          CFI R18 Undefined
          CFI R19 Undefined
          CFI R20 Undefined
          CFI R21 Undefined
          CFI R22 Undefined
          CFI R23 Undefined
          CFI R24 SameValue
          CFI R25 SameValue
          CFI R26 SameValue
          CFI R27 SameValue
          CFI R28 Undefined
          CFI R29 Undefined
          CFI R30 Undefined
          CFI R31 Undefined
          CFI ?RetHighByteMask SameValue
          CFI SPH Undefined
          CFI SPL Undefined
          CFI EndCommon cfiCommon0
        
        EXTERN crc16
        FUNCTION crc16,0202H
        ARGFRAME RSTACK, 0, STACK
        EXTERN crc16wtable
        FUNCTION crc16wtable,0202H
        ARGFRAME RSTACK, 0, STACK

// F:\Probleme_SOC\CRC\main.c
//    1 #include<iom16.h>
//    2 #include<inavr.h>
//    3 #include"crc.h"
//    4 

        RSEG CODE:CODE:NOROOT(1)
//    5 unsigned char min(unsigned char x, unsigned char y)
min:
          CFI Block cfiBlock0 Using cfiCommon0
          CFI Function min
//    6 {
        MOV     R18, R16
//    7   if(x < y)
        CP      R18, R17
        BRCC    ??min_0
//    8     return x;
        MOV     R16, R18
        RET
//    9   else
//   10     return y;
??min_0:
        MOV     R16, R17
        RET
          CFI EndBlock cfiBlock0
//   11 }
//   12 

        RSEG CODE:CODE:NOROOT(1)
//   13 void main( void )
main:
          CFI Block cfiBlock1 Using cfiCommon0
          CFI Function main
//   14 {
        FUNCALL main, crc16
        LOCFRAME CSTACK, 5, STACK
        LOCFRAME RSTACK, 2, STACK
        ARGFRAME RSTACK, 0, STACK
        FUNCALL main, crc16wtable
        LOCFRAME CSTACK, 4, STACK
        LOCFRAME RSTACK, 2, STACK
        ARGFRAME RSTACK, 0, STACK
        CALL    ?PROLOGUE4_L09
          CFI R27 Frame(CFA_Y, -1)
          CFI R26 Frame(CFA_Y, -2)
          CFI R25 Frame(CFA_Y, -3)
          CFI R24 Frame(CFA_Y, -4)
          CFI CFA_Y Y+4
//   15   unsigned int real_crc = *(__flash unsigned int*)(0x4000-2);
        LDI     R30, LOW(16382)
        LDI     R31, (16382) >> 8
        LPM     R24, Z+
        LPM     R25, Z
        SBIW    R31:R30, 1
//   16   unsigned int my_crc16 = crc16(CRC16_CCITT, 0, 0, (0x4000-2), MSBF);
        LDI     R16, 1
        ST      -Y, R16
          CFI CFA_Y Y+5
        LDI     R22, 254
        LDI     R23, 63
        LDI     R20, 0
        LDI     R21, 0
        LDI     R18, 0
        LDI     R19, 0
        LDI     R16, 33
        LDI     R17, 16
        CALL    crc16
          CFI CFA_Y Y+4
        MOVW    R27:R26, R17:R16
//   17   unsigned int mycrc16_t = crc16wtable(0, 0, (0x4000-2));
        LDI     R20, 254
        LDI     R21, 63
        LDI     R18, 0
        LDI     R19, 0
        LDI     R16, 0
        LDI     R17, 0
        CALL    crc16wtable
//   18   
//   19   while(1)
??main_0:
        RJMP    ??main_0
          CFI EndBlock cfiBlock1
//   20     ;
//   21 }

        ASEGN ABSOLUTE:DATA:NOROOT,01cH
__?EECR:

        ASEGN ABSOLUTE:DATA:NOROOT,01dH
__?EEDR:

        ASEGN ABSOLUTE:DATA:NOROOT,01eH
__?EEARL:

        ASEGN ABSOLUTE:DATA:NOROOT,01fH
__?EEARH:

        END
// 
// 72 bytes in segment CODE
// 
// 72 bytes of CODE memory
//
//Errors: none
//Warnings: 1
