###############################################################################
#                                                                             #
# IAR C/C++ Compiler V6.11.1.50453 for Atmel AVR        03/Jan/2015  15:17:21 #
# Copyright 1996-2011 IAR Systems AB.                                         #
#                                                                             #
#    Source file  =  D:\1307B\P15WDfrecv010\main.c                            #
#    Command line =  D:\1307B\P15WDfrecv010\main.c --cpu=m16 -ms -o           #
#                    D:\1307B\P15WDfrecv010\Debug\Obj\ -lC                    #
#                    D:\1307B\P15WDfrecv010\Debug\List\ -lA                   #
#                    D:\1307B\P15WDfrecv010\Debug\List\                       #
#                    --initializers_in_flash --no_cse --no_inline             #
#                    --no_code_motion --no_cross_call --no_clustering         #
#                    --no_tbaa --debug -DENABLE_BIT_DEFINITIONS -e            #
#                    --eeprom_size 512 --clib -On                             #
#    List file    =  D:\1307B\P15WDfrecv010\Debug\List\main.lst               #
#    Object file  =  D:\1307B\P15WDfrecv010\Debug\Obj\main.r90                #
#                                                                             #
#                                                                             #
###############################################################################

D:\1307B\P15WDfrecv010\main.c
      1          #include <iom16.h>

   \                                 In  segment ABSOLUTE, at 0x59
   \   union <unnamed> volatile __io _A_TIMSK
   \                     _A_TIMSK:
   \   00000000                      DS8 1

   \                                 In  segment ABSOLUTE, at 0x4e
   \   union <unnamed> volatile __io _A_TCCR1B
   \                     _A_TCCR1B:
   \   00000000                      DS8 1

   \                                 In  segment ABSOLUTE, at 0x4c
   \   union <unnamed> volatile __io _A_TCNT1
   \                     _A_TCNT1:
   \   00000000                      DS8 2

   \                                 In  segment ABSOLUTE, at 0x41
   \   union <unnamed> volatile __io _A_WDTCR
   \                     _A_WDTCR:
   \   00000000                      DS8 1
      2          #include <inavr.h>
      3          #include "usart.h"

   \                                 In  segment NEAR_N, align 1, keep-with-next
      4          __no_init unsigned int Timer1_currentValue;
   \                     Timer1_currentValue:
   \   00000000                      DS8 2

   \                                 In  segment NEAR_N, align 1, keep-with-next
      5          __no_init unsigned int Timer1_numberOverflows;
   \                     Timer1_numberOverflows:
   \   00000000                      DS8 2
      6          #pragma vector = TIMER1_OVF_vect

   \                                 In  segment CODE, align 2, keep-with-next
      7          __interrupt void T1_OVF()
   \                     T1_OVF:
      8          {
   \   00000000   93FA               ST      -Y, R31
   \   00000002   93EA               ST      -Y, R30
   \   00000004   932A               ST      -Y, R18
   \   00000006   931A               ST      -Y, R17
   \   00000008   930A               ST      -Y, R16
   \   0000000A   B72F               IN      R18, 0x3F
      9          Timer1_numberOverflows++;
   \   0000000C   ....               LDI     R30, LOW(Timer1_numberOverflows)
   \   0000000E   ....               LDI     R31, (Timer1_numberOverflows) >> 8
   \   00000010   8100               LD      R16, Z
   \   00000012   8111               LDD     R17, Z+1
   \   00000014   5F0F               SUBI    R16, 255
   \   00000016   4F1F               SBCI    R17, 255
   \   00000018   8300               ST      Z, R16
   \   0000001A   8311               STD     Z+1, R17
     10          }
   \   0000001C   BF2F               OUT     0x3F, R18
   \   0000001E   9109               LD      R16, Y+
   \   00000020   9119               LD      R17, Y+
   \   00000022   9129               LD      R18, Y+
   \   00000024   91E9               LD      R30, Y+
   \   00000026   91F9               LD      R31, Y+
   \   00000028   9518               RETI
     11          

   \                                 In  segment CODE, align 2, keep-with-next
     12          void printFrecv(unsigned long frecv)
   \                     printFrecv:
     13          {
   \   00000000   ........           CALL    ?PROLOGUE16_L09
   \   00000004                      REQUIRE ?Register_R4_is_cg_reg
   \   00000004                      REQUIRE ?Register_R5_is_cg_reg
   \   00000004                      REQUIRE ?Register_R6_is_cg_reg
   \   00000004                      REQUIRE ?Register_R7_is_cg_reg
   \   00000004                      REQUIRE ?Register_R8_is_cg_reg
   \   00000004                      REQUIRE ?Register_R9_is_cg_reg
   \   00000004                      REQUIRE ?Register_R12_is_cg_reg
   \   00000004                      REQUIRE ?Register_R13_is_cg_reg
   \   00000004                      REQUIRE ?Register_R14_is_cg_reg
   \   00000004                      REQUIRE ?Register_R15_is_cg_reg
   \   00000004   9723               SBIW    R29:R28, 3
   \   00000006   0128               MOVW    R5:R4, R17:R16
   \   00000008   0139               MOVW    R7:R6, R19:R18
     14              unsigned long parteIntreaga=(unsigned long)frecv;
   \   0000000A   0162               MOVW    R13:R12, R5:R4
   \   0000000C   0173               MOVW    R15:R14, R7:R6
     15              unsigned long parteFractionara=(frecv-parteIntreaga*1000000)*1000;
   \   0000000E   E440               LDI     R20, 64
   \   00000010   E452               LDI     R21, 66
   \   00000012   E06F               LDI     R22, 15
   \   00000014   E070               LDI     R23, 0
   \   00000016   0186               MOVW    R17:R16, R13:R12
   \   00000018   0197               MOVW    R19:R18, R15:R14
   \   0000001A   ........           CALL    ?L_EC_MUL_L03
   \   0000001E   01A8               MOVW    R21:R20, R17:R16
   \   00000020   01B9               MOVW    R23:R22, R19:R18
   \   00000022   0182               MOVW    R17:R16, R5:R4
   \   00000024   0193               MOVW    R19:R18, R7:R6
   \   00000026   1B04               SUB     R16, R20
   \   00000028   0B15               SBC     R17, R21
   \   0000002A   0B26               SBC     R18, R22
   \   0000002C   0B37               SBC     R19, R23
   \   0000002E   EE48               LDI     R20, 232
   \   00000030   E053               LDI     R21, 3
   \   00000032   E060               LDI     R22, 0
   \   00000034   E070               LDI     R23, 0
   \   00000036   ........           CALL    ?L_EC_MUL_L03
   \   0000003A   01C8               MOVW    R25:R24, R17:R16
   \   0000003C   01D9               MOVW    R27:R26, R19:R18
     16              unsigned char buffer[3]={'\0'};
   \   0000003E   ....               LDI     R30, LOW(`?<Constant {0}>`)
   \   00000040   ....               LDI     R31, (`?<Constant {0}>`) >> 8
   \   00000042   9105               LPM     R16, Z+
   \   00000044   9115               LPM     R17, Z+
   \   00000046   9124               LPM     R18, Z
   \   00000048   9732               SBIW    R31:R30, 2
   \   0000004A   8308               ST      Y, R16
   \   0000004C   8319               STD     Y+1, R17
   \   0000004E   832A               STD     Y+2, R18
     17              int index=0;
   \   00000050   2488               CLR     R8
   \   00000052   2499               CLR     R9
     18            
     19               USART_transmit(parteIntreaga%10+'0');
   \   00000054   E04A               LDI     R20, 10
   \   00000056   E050               LDI     R21, 0
   \   00000058   E060               LDI     R22, 0
   \   0000005A   E070               LDI     R23, 0
   \   0000005C   0186               MOVW    R17:R16, R13:R12
   \   0000005E   0197               MOVW    R19:R18, R15:R14
   \   00000060   ........           CALL    ?UL_DIVMOD_L03
   \   00000064   2F04               MOV     R16, R20
   \   00000066   5D00               SUBI    R16, 208
   \   00000068   ........           CALL    USART_transmit
     20               USART_transmit('.');
   \   0000006C   E20E               LDI     R16, 46
   \   0000006E   ........           CALL    USART_transmit
     21               
     22               while(parteFractionara)
   \                     ??printFrecv_0:
   \   00000072   2F08               MOV     R16, R24
   \   00000074   2B09               OR      R16, R25
   \   00000076   2B0A               OR      R16, R26
   \   00000078   2B0B               OR      R16, R27
   \   0000007A   F0E1               BREQ    ??printFrecv_1
     23               {
     24                buffer[index++]=parteFractionara%10+'0';
   \   0000007C   E04A               LDI     R20, 10
   \   0000007E   E050               LDI     R21, 0
   \   00000080   E060               LDI     R22, 0
   \   00000082   E070               LDI     R23, 0
   \   00000084   018C               MOVW    R17:R16, R25:R24
   \   00000086   019D               MOVW    R19:R18, R27:R26
   \   00000088   ........           CALL    ?UL_DIVMOD_L03
   \   0000008C   5D40               SUBI    R20, 208
   \   0000008E   01FE               MOVW    R31:R30, R29:R28
   \   00000090   0DE8               ADD     R30, R8
   \   00000092   1DF9               ADC     R31, R9
   \   00000094   8340               ST      Z, R20
   \   00000096   E001               LDI     R16, 1
   \   00000098   0E80               ADD     R8, R16
   \   0000009A   E000               LDI     R16, 0
   \   0000009C   1E90               ADC     R9, R16
     25                parteFractionara/=10;
   \   0000009E   E04A               LDI     R20, 10
   \   000000A0   E050               LDI     R21, 0
   \   000000A2   E060               LDI     R22, 0
   \   000000A4   E070               LDI     R23, 0
   \   000000A6   018C               MOVW    R17:R16, R25:R24
   \   000000A8   019D               MOVW    R19:R18, R27:R26
   \   000000AA   ........           CALL    ?UL_DIVMOD_L03
   \   000000AE   01C8               MOVW    R25:R24, R17:R16
   \   000000B0   01D9               MOVW    R27:R26, R19:R18
   \   000000B2   CFDF               RJMP    ??printFrecv_0
     26                 
     27               }
     28               index-=1;
   \                     ??printFrecv_1:
   \   000000B4   EF0F               LDI     R16, 255
   \   000000B6   0E80               ADD     R8, R16
   \   000000B8   EF0F               LDI     R16, 255
   \   000000BA   1E90               ADC     R9, R16
     29               while(index)
   \                     ??printFrecv_2:
   \   000000BC   2D08               MOV     R16, R8
   \   000000BE   2909               OR      R16, R9
   \   000000C0   F059               BREQ    ??printFrecv_3
     30               {
     31               USART_transmit(buffer[index--]);
   \   000000C2   01FE               MOVW    R31:R30, R29:R28
   \   000000C4   0DE8               ADD     R30, R8
   \   000000C6   1DF9               ADC     R31, R9
   \   000000C8   8100               LD      R16, Z
   \   000000CA   ........           CALL    USART_transmit
   \   000000CE   EF0F               LDI     R16, 255
   \   000000D0   0E80               ADD     R8, R16
   \   000000D2   EF0F               LDI     R16, 255
   \   000000D4   1E90               ADC     R9, R16
   \   000000D6   CFF2               RJMP    ??printFrecv_2
     32               }
     33               USART_transmit(0x0d);
   \                     ??printFrecv_3:
   \   000000D8   E00D               LDI     R16, 13
   \   000000DA   ........           CALL    USART_transmit
     34               USART_transmit(0x0a);
   \   000000DE   E00A               LDI     R16, 10
   \   000000E0   ........           CALL    USART_transmit
     35             
     36            
     37               
     38          }
   \   000000E4   9623               ADIW    R29:R28, 3
   \   000000E6   E1E0               LDI     R30, 16
   \   000000E8   ........           JMP     ?EPILOGUE_B16_L09

   \                                 In  segment NEAR_Z, align 1, keep-with-next
   \   00000000                      REQUIRE `?<Segment init: NEAR_Z>`
     39          unsigned long number;
   \                     number:
   \   00000000                      DS8 4

   \                                 In  segment NEAR_Z, align 1, keep-with-next
   \   00000000                      REQUIRE `?<Segment init: NEAR_Z>`
     40          unsigned long period;
   \                     period:
   \   00000000                      DS8 4

   \                                 In  segment NEAR_Z, align 1, keep-with-next
   \   00000000                      REQUIRE `?<Segment init: NEAR_Z>`
     41          unsigned long time_per_clock;
   \                     time_per_clock:
   \   00000000                      DS8 4

   \                                 In  segment NEAR_Z, align 1, keep-with-next
   \   00000000                      REQUIRE `?<Segment init: NEAR_Z>`
     42          unsigned long frecv;
   \                     frecv:
   \   00000000                      DS8 4

   \                                 In  segment NEAR_Z, align 1, keep-with-next
   \   00000000                      REQUIRE `?<Segment init: NEAR_Z>`
     43          unsigned long parteFractionara;
   \                     parteFractionara:
   \   00000000                      DS8 4

   \                                 In  segment NEAR_Z, align 1, keep-with-next
   \   00000000                      REQUIRE `?<Segment init: NEAR_Z>`
     44          int index;
   \                     index:
   \   00000000                      DS8 2

   \                                 In  segment NEAR_Z, align 1, keep-with-next
   \   00000000                      REQUIRE `?<Segment init: NEAR_Z>`
     45          unsigned char buffer[3];
   \                     buffer:
   \   00000000                      DS8 3

   \                                 In  segment CODE, align 2, keep-with-next
     46          int main( void )
   \                     main:
     47          {
   \   00000000   ........           CALL    ?PROLOGUE4_L09
     48            /*iniþializare usart*/
     49            USART_initialize(BAUD_RATE);
   \   00000004   E00C               LDI     R16, 12
   \   00000006   E010               LDI     R17, 0
   \   00000008   ........           CALL    USART_initialize
     50            /*iniþializare Timer 1*/
     51            /*Mod de funcþionare Normal*/
     52            /*Setare prescaler */
     53            TCCR1B|=(1<<CS10);
   \   0000000C   B50E               IN      R16, 0x2E
   \   0000000E   6001               ORI     R16, 0x01
   \   00000010   BD0E               OUT     0x2E, R16
     54            /*Activare întrerupere*/
     55            TIMSK|=(1<<TOIE1);
   \   00000012   B709               IN      R16, 0x39
   \   00000014   6004               ORI     R16, 0x04
   \   00000016   BF09               OUT     0x39, R16
     56            __enable_interrupt();
   \   00000018   9478               SEI
     57            /*iniþializare Watchdog*/
     58            /*Setare time-out de 65 ms*/
     59            WDTCR|= (1<<WDP1);
   \   0000001A   B501               IN      R16, 0x21
   \   0000001C   6002               ORI     R16, 0x02
   \   0000001E   BD01               OUT     0x21, R16
     60            if(Timer1_numberOverflows >0 || Timer1_currentValue>0)
   \   00000020   9100....           LDS     R16, Timer1_numberOverflows
   \   00000024   9110....           LDS     R17, (Timer1_numberOverflows + 1)
   \   00000028   2B01               OR      R16, R17
   \   0000002A   F439               BRNE    ??main_0
   \   0000002C   9100....           LDS     R16, Timer1_currentValue
   \   00000030   9110....           LDS     R17, (Timer1_currentValue + 1)
   \   00000034   2B01               OR      R16, R17
   \   00000036   F409               BRNE    $+2+2
   \   00000038   C13A               RJMP    ??main_1
     61            {
     62              /*calculul perioadei efective de time-out a watchdog-ului*/
     63               number=Timer1_numberOverflows*65535+Timer1_currentValue;
   \                     ??main_0:
   \   0000003A   9100....           LDS     R16, Timer1_numberOverflows
   \   0000003E   9110....           LDS     R17, (Timer1_numberOverflows + 1)
   \   00000042   E020               LDI     R18, 0
   \   00000044   E030               LDI     R19, 0
   \   00000046   EF4F               LDI     R20, 255
   \   00000048   EF5F               LDI     R21, 255
   \   0000004A   E060               LDI     R22, 0
   \   0000004C   E070               LDI     R23, 0
   \   0000004E   ........           CALL    ?L_EC_MUL_L03
   \   00000052   9140....           LDS     R20, Timer1_currentValue
   \   00000056   9150....           LDS     R21, (Timer1_currentValue + 1)
   \   0000005A   E060               LDI     R22, 0
   \   0000005C   E070               LDI     R23, 0
   \   0000005E   0F04               ADD     R16, R20
   \   00000060   1F15               ADC     R17, R21
   \   00000062   1F26               ADC     R18, R22
   \   00000064   1F37               ADC     R19, R23
   \   00000066   ....               LDI     R30, LOW(number)
   \   00000068   ....               LDI     R31, (number) >> 8
   \   0000006A   8300               ST      Z, R16
   \   0000006C   8311               STD     Z+1, R17
   \   0000006E   8322               STD     Z+2, R18
   \   00000070   8333               STD     Z+3, R19
     64              /*calculul perioadei în us*/
     65               period=number*0.25;
                            ^
Warning[Pa093]: implicit conversion from floating point to integer
   \   00000072   ....               LDI     R30, LOW(number)
   \   00000074   ....               LDI     R31, (number) >> 8
   \   00000076   8100               LD      R16, Z
   \   00000078   8111               LDD     R17, Z+1
   \   0000007A   8122               LDD     R18, Z+2
   \   0000007C   8133               LDD     R19, Z+3
   \   0000007E   ........           CALL    ?UL2F_L04
   \   00000082   E040               LDI     R20, 0
   \   00000084   E050               LDI     R21, 0
   \   00000086   E860               LDI     R22, 128
   \   00000088   E37E               LDI     R23, 62
   \   0000008A   ........           CALL    ?F_MUL_L04
   \   0000008E   ........           CALL    ?F2UL_L04
   \   00000092   ....               LDI     R30, LOW(period)
   \   00000094   ....               LDI     R31, (period) >> 8
   \   00000096   8300               ST      Z, R16
   \   00000098   8311               STD     Z+1, R17
   \   0000009A   8322               STD     Z+2, R18
   \   0000009C   8333               STD     Z+3, R19
     66              /*calculul perioadei unui ciclu de clock al watchdog-ului*/
     67               time_per_clock=(unsigned long)((period*1000000)/65536);
   \   0000009E   E440               LDI     R20, 64
   \   000000A0   E452               LDI     R21, 66
   \   000000A2   E06F               LDI     R22, 15
   \   000000A4   E070               LDI     R23, 0
   \   000000A6   ....               LDI     R30, LOW(period)
   \   000000A8   ....               LDI     R31, (period) >> 8
   \   000000AA   8100               LD      R16, Z
   \   000000AC   8111               LDD     R17, Z+1
   \   000000AE   8122               LDD     R18, Z+2
   \   000000B0   8133               LDD     R19, Z+3
   \   000000B2   ........           CALL    ?L_EC_MUL_L03
   \   000000B6   2F02               MOV     R16, R18
   \   000000B8   2F13               MOV     R17, R19
   \   000000BA   E020               LDI     R18, 0
   \   000000BC   E030               LDI     R19, 0
   \   000000BE   ....               LDI     R30, LOW(time_per_clock)
   \   000000C0   ....               LDI     R31, (time_per_clock) >> 8
   \   000000C2   8300               ST      Z, R16
   \   000000C4   8311               STD     Z+1, R17
   \   000000C6   8322               STD     Z+2, R18
   \   000000C8   8333               STD     Z+3, R19
     68              /*calculul frecvenþei în MHz*/
     69              frecv=(unsigned long)((1000000./time_per_clock));
   \   000000CA   ....               LDI     R30, LOW(time_per_clock)
   \   000000CC   ....               LDI     R31, (time_per_clock) >> 8
   \   000000CE   8100               LD      R16, Z
   \   000000D0   8111               LDD     R17, Z+1
   \   000000D2   8122               LDD     R18, Z+2
   \   000000D4   8133               LDD     R19, Z+3
   \   000000D6   ........           CALL    ?UL2F_L04
   \   000000DA   01A8               MOVW    R21:R20, R17:R16
   \   000000DC   01B9               MOVW    R23:R22, R19:R18
   \   000000DE   E000               LDI     R16, 0
   \   000000E0   E214               LDI     R17, 36
   \   000000E2   E724               LDI     R18, 116
   \   000000E4   E439               LDI     R19, 73
   \   000000E6   ........           CALL    ?F_DIV_L04
   \   000000EA   ........           CALL    ?F2UL_L04
   \   000000EE   ....               LDI     R30, LOW(frecv)
   \   000000F0   ....               LDI     R31, (frecv) >> 8
   \   000000F2   8300               ST      Z, R16
   \   000000F4   8311               STD     Z+1, R17
   \   000000F6   8322               STD     Z+2, R18
   \   000000F8   8333               STD     Z+3, R19
     70              parteFractionara=((1000000./time_per_clock) - frecv)*1000;
                                     ^
Warning[Pa093]: implicit conversion from floating point to integer
   \   000000FA   ....               LDI     R30, LOW(time_per_clock)
   \   000000FC   ....               LDI     R31, (time_per_clock) >> 8
   \   000000FE   8100               LD      R16, Z
   \   00000100   8111               LDD     R17, Z+1
   \   00000102   8122               LDD     R18, Z+2
   \   00000104   8133               LDD     R19, Z+3
   \   00000106   ........           CALL    ?UL2F_L04
   \   0000010A   01A8               MOVW    R21:R20, R17:R16
   \   0000010C   01B9               MOVW    R23:R22, R19:R18
   \   0000010E   E000               LDI     R16, 0
   \   00000110   E214               LDI     R17, 36
   \   00000112   E724               LDI     R18, 116
   \   00000114   E439               LDI     R19, 73
   \   00000116   ........           CALL    ?F_DIV_L04
   \   0000011A   01C8               MOVW    R25:R24, R17:R16
   \   0000011C   01D9               MOVW    R27:R26, R19:R18
   \   0000011E   ....               LDI     R30, LOW(frecv)
   \   00000120   ....               LDI     R31, (frecv) >> 8
   \   00000122   8100               LD      R16, Z
   \   00000124   8111               LDD     R17, Z+1
   \   00000126   8122               LDD     R18, Z+2
   \   00000128   8133               LDD     R19, Z+3
   \   0000012A   ........           CALL    ?UL2F_L04
   \   0000012E   01A8               MOVW    R21:R20, R17:R16
   \   00000130   01B9               MOVW    R23:R22, R19:R18
   \   00000132   018C               MOVW    R17:R16, R25:R24
   \   00000134   019D               MOVW    R19:R18, R27:R26
   \   00000136   ........           CALL    ?F_SUB_L04
   \   0000013A   E040               LDI     R20, 0
   \   0000013C   E050               LDI     R21, 0
   \   0000013E   E76A               LDI     R22, 122
   \   00000140   E474               LDI     R23, 68
   \   00000142   ........           CALL    ?F_MUL_L04
   \   00000146   ........           CALL    ?F2UL_L04
   \   0000014A   ....               LDI     R30, LOW(parteFractionara)
   \   0000014C   ....               LDI     R31, (parteFractionara) >> 8
   \   0000014E   8300               ST      Z, R16
   \   00000150   8311               STD     Z+1, R17
   \   00000152   8322               STD     Z+2, R18
   \   00000154   8333               STD     Z+3, R19
     71              
     72              while(frecv)
   \                     ??main_2:
   \   00000156   ....               LDI     R30, LOW(frecv)
   \   00000158   ....               LDI     R31, (frecv) >> 8
   \   0000015A   8100               LD      R16, Z
   \   0000015C   8111               LDD     R17, Z+1
   \   0000015E   8122               LDD     R18, Z+2
   \   00000160   8133               LDD     R19, Z+3
   \   00000162   2B01               OR      R16, R17
   \   00000164   2B02               OR      R16, R18
   \   00000166   2B03               OR      R16, R19
   \   00000168   F119               BREQ    ??main_3
     73              {
     74               USART_transmit(frecv%10+'0'); 
   \   0000016A   E04A               LDI     R20, 10
   \   0000016C   E050               LDI     R21, 0
   \   0000016E   E060               LDI     R22, 0
   \   00000170   E070               LDI     R23, 0
   \   00000172   ....               LDI     R30, LOW(frecv)
   \   00000174   ....               LDI     R31, (frecv) >> 8
   \   00000176   8100               LD      R16, Z
   \   00000178   8111               LDD     R17, Z+1
   \   0000017A   8122               LDD     R18, Z+2
   \   0000017C   8133               LDD     R19, Z+3
   \   0000017E   ........           CALL    ?UL_DIVMOD_L03
   \   00000182   2F04               MOV     R16, R20
   \   00000184   5D00               SUBI    R16, 208
   \   00000186   ........           CALL    USART_transmit
     75               frecv/=10;
   \   0000018A   E04A               LDI     R20, 10
   \   0000018C   E050               LDI     R21, 0
   \   0000018E   E060               LDI     R22, 0
   \   00000190   E070               LDI     R23, 0
   \   00000192   ....               LDI     R30, LOW(frecv)
   \   00000194   ....               LDI     R31, (frecv) >> 8
   \   00000196   8100               LD      R16, Z
   \   00000198   8111               LDD     R17, Z+1
   \   0000019A   8122               LDD     R18, Z+2
   \   0000019C   8133               LDD     R19, Z+3
   \   0000019E   ........           CALL    ?UL_DIVMOD_L03
   \   000001A2   ....               LDI     R30, LOW(frecv)
   \   000001A4   ....               LDI     R31, (frecv) >> 8
   \   000001A6   8300               ST      Z, R16
   \   000001A8   8311               STD     Z+1, R17
   \   000001AA   8322               STD     Z+2, R18
   \   000001AC   8333               STD     Z+3, R19
   \   000001AE   CFD3               RJMP    ??main_2
     76              }
     77              
     78             
     79              USART_transmit('.');
   \                     ??main_3:
   \   000001B0   E20E               LDI     R16, 46
   \   000001B2   ........           CALL    USART_transmit
     80               
     81               if(parteFractionara)
   \   000001B6   ....               LDI     R30, LOW(parteFractionara)
   \   000001B8   ....               LDI     R31, (parteFractionara) >> 8
   \   000001BA   8100               LD      R16, Z
   \   000001BC   8111               LDD     R17, Z+1
   \   000001BE   8122               LDD     R18, Z+2
   \   000001C0   8133               LDD     R19, Z+3
   \   000001C2   2B01               OR      R16, R17
   \   000001C4   2B02               OR      R16, R18
   \   000001C6   2B03               OR      R16, R19
   \   000001C8   F1D1               BREQ    ??main_4
     82               {
     83                 
     84                 while(parteFractionara)
   \                     ??main_5:
   \   000001CA   ....               LDI     R30, LOW(parteFractionara)
   \   000001CC   ....               LDI     R31, (parteFractionara) >> 8
   \   000001CE   8100               LD      R16, Z
   \   000001D0   8111               LDD     R17, Z+1
   \   000001D2   8122               LDD     R18, Z+2
   \   000001D4   8133               LDD     R19, Z+3
   \   000001D6   2B01               OR      R16, R17
   \   000001D8   2B02               OR      R16, R18
   \   000001DA   2B03               OR      R16, R19
   \   000001DC   F1B1               BREQ    ??main_6
     85               {
     86                buffer[index++]=parteFractionara%10+'0';
   \   000001DE   E04A               LDI     R20, 10
   \   000001E0   E050               LDI     R21, 0
   \   000001E2   E060               LDI     R22, 0
   \   000001E4   E070               LDI     R23, 0
   \   000001E6   ....               LDI     R30, LOW(parteFractionara)
   \   000001E8   ....               LDI     R31, (parteFractionara) >> 8
   \   000001EA   8100               LD      R16, Z
   \   000001EC   8111               LDD     R17, Z+1
   \   000001EE   8122               LDD     R18, Z+2
   \   000001F0   8133               LDD     R19, Z+3
   \   000001F2   ........           CALL    ?UL_DIVMOD_L03
   \   000001F6   5D40               SUBI    R20, 208
   \   000001F8   9100....           LDS     R16, index
   \   000001FC   9110....           LDS     R17, (index + 1)
   \   00000200   01F8               MOVW    R31:R30, R17:R16
   \   00000202   ....               SUBI    R30, LOW((-(buffer) & 0xFFFF))
   \   00000204   ....               SBCI    R31, (-(buffer) & 0xFFFF) >> 8
   \   00000206   8340               ST      Z, R20
   \   00000208   ....               LDI     R30, LOW(index)
   \   0000020A   ....               LDI     R31, (index) >> 8
   \   0000020C   8100               LD      R16, Z
   \   0000020E   8111               LDD     R17, Z+1
   \   00000210   5F0F               SUBI    R16, 255
   \   00000212   4F1F               SBCI    R17, 255
   \   00000214   8300               ST      Z, R16
   \   00000216   8311               STD     Z+1, R17
     87                parteFractionara/=10;
   \   00000218   E04A               LDI     R20, 10
   \   0000021A   E050               LDI     R21, 0
   \   0000021C   E060               LDI     R22, 0
   \   0000021E   E070               LDI     R23, 0
   \   00000220   ....               LDI     R30, LOW(parteFractionara)
   \   00000222   ....               LDI     R31, (parteFractionara) >> 8
   \   00000224   8100               LD      R16, Z
   \   00000226   8111               LDD     R17, Z+1
   \   00000228   8122               LDD     R18, Z+2
   \   0000022A   8133               LDD     R19, Z+3
   \   0000022C   ........           CALL    ?UL_DIVMOD_L03
   \   00000230   ....               LDI     R30, LOW(parteFractionara)
   \   00000232   ....               LDI     R31, (parteFractionara) >> 8
   \   00000234   8300               ST      Z, R16
   \   00000236   8311               STD     Z+1, R17
   \   00000238   8322               STD     Z+2, R18
   \   0000023A   8333               STD     Z+3, R19
   \   0000023C   CFC6               RJMP    ??main_5
     88                 
     89               }
     90                 
     91               }
     92               else
     93               {
     94                index=3; 
   \                     ??main_4:
   \   0000023E   E003               LDI     R16, 3
   \   00000240   E010               LDI     R17, 0
   \   00000242   9300....           STS     index, R16
   \   00000246   9310....           STS     (index + 1), R17
     95               }
     96               
     97               index-=1;
   \                     ??main_6:
   \   0000024A   ....               LDI     R30, LOW(index)
   \   0000024C   ....               LDI     R31, (index) >> 8
   \   0000024E   8100               LD      R16, Z
   \   00000250   8111               LDD     R17, Z+1
   \   00000252   5001               SUBI    R16, 1
   \   00000254   4010               SBCI    R17, 0
   \   00000256   8300               ST      Z, R16
   \   00000258   8311               STD     Z+1, R17
     98               while(index)
   \                     ??main_7:
   \   0000025A   9100....           LDS     R16, index
   \   0000025E   9110....           LDS     R17, (index + 1)
   \   00000262   2B01               OR      R16, R17
   \   00000264   F089               BREQ    ??main_8
     99               {
    100               USART_transmit(buffer[index--]);
   \   00000266   9100....           LDS     R16, index
   \   0000026A   9110....           LDS     R17, (index + 1)
   \   0000026E   01C8               MOVW    R25:R24, R17:R16
   \   00000270   9701               SBIW    R25:R24, 1
   \   00000272   9380....           STS     index, R24
   \   00000276   9390....           STS     (index + 1), R25
   \   0000027A   01F8               MOVW    R31:R30, R17:R16
   \   0000027C   ....               SUBI    R30, LOW((-(buffer) & 0xFFFF))
   \   0000027E   ....               SBCI    R31, (-(buffer) & 0xFFFF) >> 8
   \   00000280   8100               LD      R16, Z
   \   00000282   ........           CALL    USART_transmit
   \   00000286   CFE9               RJMP    ??main_7
    101               }
    102               USART_transmit(buffer[0]);
   \                     ??main_8:
   \   00000288   9100....           LDS     R16, buffer
   \   0000028C   ........           CALL    USART_transmit
    103               USART_transmit('M');
   \   00000290   E40D               LDI     R16, 77
   \   00000292   ........           CALL    USART_transmit
    104               USART_transmit('H');
   \   00000296   E408               LDI     R16, 72
   \   00000298   ........           CALL    USART_transmit
    105               USART_transmit('z');
   \   0000029C   E70A               LDI     R16, 122
   \   0000029E   ........           CALL    USART_transmit
    106               USART_transmit(0x0d);
   \   000002A2   E00D               LDI     R16, 13
   \   000002A4   ........           CALL    USART_transmit
    107               USART_transmit(0x0a);
   \   000002A8   E00A               LDI     R16, 10
   \   000002AA   ........           CALL    USART_transmit
    108               
    109               
    110              
    111              
    112              
    113              
    114            }
    115            Timer1_numberOverflows=0;
   \                     ??main_1:
   \   000002AE   E000               LDI     R16, 0
   \   000002B0   E010               LDI     R17, 0
   \   000002B2   9300....           STS     Timer1_numberOverflows, R16
   \   000002B6   9310....           STS     (Timer1_numberOverflows + 1), R17
    116            Timer1_currentValue=0;
   \   000002BA   E000               LDI     R16, 0
   \   000002BC   E010               LDI     R17, 0
   \   000002BE   9300....           STS     Timer1_currentValue, R16
   \   000002C2   9310....           STS     (Timer1_currentValue + 1), R17
    117            TCNT1=0;
   \   000002C6   E000               LDI     R16, 0
   \   000002C8   E010               LDI     R17, 0
   \   000002CA   BD1D               OUT     0x2D, R17
   \   000002CC   BD0C               OUT     0x2C, R16
    118            /*Resetare WDT*/
    119            asm("WDR");
   \   000002CE   95A8               WDR
    120            /*Activare WDT*/
    121            WDTCR|=(1<<WDE);
   \   000002D0   B501               IN      R16, 0x21
   \   000002D2   6008               ORI     R16, 0x08
   \   000002D4   BD01               OUT     0x21, R16
    122            while(1)
    123            {
    124              Timer1_currentValue=TCNT1;
   \                     ??main_9:
   \   000002D6   B50C               IN      R16, 0x2C
   \   000002D8   B51D               IN      R17, 0x2D
   \   000002DA   9300....           STS     Timer1_currentValue, R16
   \   000002DE   9310....           STS     (Timer1_currentValue + 1), R17
   \   000002E2   CFF9               RJMP    ??main_9
   \   000002E4                      REQUIRE _A_TCCR1B
   \   000002E4                      REQUIRE _A_TIMSK
   \   000002E4                      REQUIRE _A_WDTCR
   \   000002E4                      REQUIRE _A_TCNT1
    125            }
    126          return 0;
                 ^
Warning[Pe111]: statement is unreachable
    127          }

   \                                 In  segment INTVEC, offset 0x20, root
   \                     `??T1_OVF??INTVEC 32`:
   \   00000020   ........           JMP     T1_OVF

   \                                 In  segment NEAR_F, align 1, keep-with-next
   \                     `?<Constant {0}>`:
   \   00000000   000000             DC8 0, 0, 0

   Maximum stack usage in bytes:

   CSTACK RSTACK Function
   ------ ------ --------
       5      2  T1_OVF
       4      4  main
                    4 2 -> USART_initialize
                    4 2 -> USART_transmit
      19      4  printFrecv
                   19 2 -> USART_transmit


   Segment part sizes:

   Bytes  Function/Label
   -----  --------------
       3  ?<Constant {0}>
       4  ??T1_OVF??INTVEC 32
      42  T1_OVF
       2  Timer1_currentValue
       2  Timer1_numberOverflows
       1  _A_TCCR1B
       2  _A_TCNT1
       1  _A_TIMSK
       1  _A_WDTCR
       3  buffer
       4  frecv
       2  index
     740  main
       4  number
       4  parteFractionara
       4  period
     236  printFrecv
       4  time_per_clock
       6  -- Other

 
     5 bytes in segment ABSOLUTE
 1 018 bytes in segment CODE
     6 bytes in segment INITTAB
     4 bytes in segment INTVEC
     3 bytes in segment NEAR_F
     4 bytes in segment NEAR_N
    25 bytes in segment NEAR_Z
 
 1 021 bytes of CODE memory (+ 10 bytes shared)
    29 bytes of DATA memory (+  5 bytes shared)

Errors: none
Warnings: 3
