###############################################################################
#                                                                             #
# IAR C/C++ Compiler V6.11.1.50453 for Atmel AVR        08/Jan/2016  11:32:38 #
# Copyright 1996-2011 IAR Systems AB.                                         #
#                                                                             #
#    Source file  =  D:\soc2015\1305B\SOC_pachet_examen\Mas_FqOscWDT_Seriala\ #
#                    usart.c                                                  #
#    Command line =  D:\soc2015\1305B\SOC_pachet_examen\Mas_FqOscWDT_Seriala\ #
#                    usart.c --cpu=m16 -ms -o D:\soc2015\1305B\SOC_pachet_exa #
#                    men\Mas_FqOscWDT_Seriala\Debug\Obj\ -lC                  #
#                    D:\soc2015\1305B\SOC_pachet_examen\Mas_FqOscWDT_Seriala\ #
#                    Debug\List\ -lA D:\soc2015\1305B\SOC_pachet_examen\Mas_F #
#                    qOscWDT_Seriala\Debug\List\ --initializers_in_flash      #
#                    --no_cse --no_inline --no_code_motion --no_cross_call    #
#                    --no_clustering --no_tbaa --debug                        #
#                    -DENABLE_BIT_DEFINITIONS -e --eeprom_size 512 --clib -On #
#    List file    =  D:\soc2015\1305B\SOC_pachet_examen\Mas_FqOscWDT_Seriala\ #
#                    Debug\List\usart.lst                                     #
#    Object file  =  D:\soc2015\1305B\SOC_pachet_examen\Mas_FqOscWDT_Seriala\ #
#                    Debug\Obj\usart.r90                                      #
#                                                                             #
#                                                                             #
###############################################################################

D:\soc2015\1305B\SOC_pachet_examen\Mas_FqOscWDT_Seriala\usart.c
      1          #include "usart.h"

   \                                 In  segment ABSOLUTE, at 0x40
   \   union <unnamed> volatile __io _A_UBRRH
   \                     _A_UBRRH:
   \   00000000                      DS8 1

   \                                 In  segment ABSOLUTE, at 0x2c
   \   union <unnamed> volatile __io _A_UDR
   \                     _A_UDR:
   \   00000000                      DS8 1

   \                                 In  segment ABSOLUTE, at 0x2b
   \   union <unnamed> volatile __io _A_UCSRA
   \                     _A_UCSRA:
   \   00000000                      DS8 1

   \                                 In  segment ABSOLUTE, at 0x2a
   \   union <unnamed> volatile __io _A_UCSRB
   \                     _A_UCSRB:
   \   00000000                      DS8 1

   \                                 In  segment ABSOLUTE, at 0x29
   \   union <unnamed> volatile __io _A_UBRRL
   \                     _A_UBRRL:
   \   00000000                      DS8 1
      2          

   \                                 In  segment CODE, align 2, keep-with-next
      3          void USART_init(int baud_rate)
   \                     USART_init:
      4          {
      5            UBRRH = (baud_rate>>8); //setez baudrate-ul
   \   00000000   0198               MOVW    R19:R18, R17:R16
   \   00000002   2F23               MOV     R18, R19
   \   00000004   0F33               LSL     R19
   \   00000006   0B33               SBC     R19, R19
   \   00000008   BD20               OUT     0x20, R18
      6            UBRRL = baud_rate;
   \   0000000A   2F20               MOV     R18, R16
   \   0000000C   B929               OUT     0x09, R18
      7            UCSRB |= (1<<RXEN) | (1<<TXEN); //enable receive & transmit
   \   0000000E   B12A               IN      R18, 0x0A
   \   00000010   6128               ORI     R18, 0x18
   \   00000012   B92A               OUT     0x0A, R18
      8          }
   \   00000014   9508               RET
   \   00000016                      REQUIRE _A_UBRRH
   \   00000016                      REQUIRE _A_UBRRL
   \   00000016                      REQUIRE _A_UCSRB
      9          

   \                                 In  segment CODE, align 2, keep-with-next
     10          void USART_transmit(unsigned char c)
   \                     USART_transmit:
   \                     ??USART_transmit_0:
     11          {
     12            while( !(UCSRA & (1<<UDRE)) )
   \   00000000   9B5D               SBIS    0x0B, 0x05
   \   00000002   CFFE               RJMP    ??USART_transmit_0
     13              ;
     14            UDR = c;
   \   00000004   B90C               OUT     0x0C, R16
     15          }
   \   00000006   9508               RET
   \   00000008                      REQUIRE _A_UCSRA
   \   00000008                      REQUIRE _A_UDR
     16          

   \                                 In  segment CODE, align 2, keep-with-next
     17          unsigned char USART_receive(void)
   \                     USART_receive:
   \                     ??USART_receive_0:
     18          {
     19            while( !(UCSRA & (1<<RXC)) )
   \   00000000   9B5F               SBIS    0x0B, 0x07
   \   00000002   CFFE               RJMP    ??USART_receive_0
     20              ;
     21            return UDR;
   \   00000004   B10C               IN      R16, 0x0C
   \   00000006   9508               RET
   \   00000008                      REQUIRE _A_UCSRA
   \   00000008                      REQUIRE _A_UDR
     22          }
     23          

   \                                 In  segment CODE, align 2, keep-with-next
     24          void USART_transmit_uint(unsigned int n)
   \                     USART_transmit_uint:
     25          {
   \   00000000   ........           CALL    ?PROLOGUE4_L09
   \   00000004   9760               SBIW    R29:R28, 16
   \   00000006   01C8               MOVW    R25:R24, R17:R16
     26            unsigned char aux[16];
     27            int index = 0;
   \   00000008   E0A0               LDI     R26, 0
   \   0000000A   E0B0               LDI     R27, 0
     28            while(n)
   \                     ??USART_transmit_uint_0:
   \   0000000C   2F08               MOV     R16, R24
   \   0000000E   2B09               OR      R16, R25
   \   00000010   F091               BREQ    ??USART_transmit_uint_1
     29            {
     30              aux[index++] = n % 10 + '0';
   \   00000012   E04A               LDI     R20, 10
   \   00000014   E050               LDI     R21, 0
   \   00000016   018C               MOVW    R17:R16, R25:R24
   \   00000018   ........           CALL    ?US_DIVMOD_L02
   \   0000001C   5D40               SUBI    R20, 208
   \   0000001E   01FE               MOVW    R31:R30, R29:R28
   \   00000020   0FEA               ADD     R30, R26
   \   00000022   1FFB               ADC     R31, R27
   \   00000024   8340               ST      Z, R20
   \   00000026   9611               ADIW    R27:R26, 1
     31              n /= 10; 
   \   00000028   E04A               LDI     R20, 10
   \   0000002A   E050               LDI     R21, 0
   \   0000002C   018C               MOVW    R17:R16, R25:R24
   \   0000002E   ........           CALL    ?US_DIVMOD_L02
   \   00000032   01C8               MOVW    R25:R24, R17:R16
   \   00000034   CFEB               RJMP    ??USART_transmit_uint_0
     32            }
     33            index--;
   \                     ??USART_transmit_uint_1:
   \   00000036   9711               SBIW    R27:R26, 1
     34            while(index >= 0)
   \                     ??USART_transmit_uint_2:
   \   00000038   23BB               TST     R27
   \   0000003A   F03A               BRMI    ??USART_transmit_uint_3
     35            {
     36              USART_transmit(aux[index--]);
   \   0000003C   01FE               MOVW    R31:R30, R29:R28
   \   0000003E   0FEA               ADD     R30, R26
   \   00000040   1FFB               ADC     R31, R27
   \   00000042   8100               LD      R16, Z
   \   00000044   ....               RCALL   USART_transmit
   \   00000046   9711               SBIW    R27:R26, 1
   \   00000048   CFF7               RJMP    ??USART_transmit_uint_2
     37            }
     38          }
   \                     ??USART_transmit_uint_3:
   \   0000004A   9660               ADIW    R29:R28, 16
   \   0000004C   E0E4               LDI     R30, 4
   \   0000004E   ........           JMP     ?EPILOGUE_B4_L09
     39          

   \                                 In  segment CODE, align 2, keep-with-next
     40          void USART_transmit_ulonglong(unsigned long long n)
   \                     USART_transmit_ulonglong:
     41          {
   \   00000000   ........           CALL    ?PROLOGUE16_L09
   \   00000004                      REQUIRE ?Register_R4_is_cg_reg
   \   00000004                      REQUIRE ?Register_R5_is_cg_reg
   \   00000004                      REQUIRE ?Register_R6_is_cg_reg
   \   00000004                      REQUIRE ?Register_R7_is_cg_reg
   \   00000004                      REQUIRE ?Register_R8_is_cg_reg
   \   00000004                      REQUIRE ?Register_R9_is_cg_reg
   \   00000004                      REQUIRE ?Register_R10_is_cg_reg
   \   00000004                      REQUIRE ?Register_R11_is_cg_reg
   \   00000004                      REQUIRE ?Register_R12_is_cg_reg
   \   00000004                      REQUIRE ?Register_R13_is_cg_reg
   \   00000004                      REQUIRE ?Register_R14_is_cg_reg
   \   00000004                      REQUIRE ?Register_R15_is_cg_reg
   \   00000004   9766               SBIW    R29:R28, 22
   \   00000006   0148               MOVW    R9:R8, R17:R16
   \   00000008   0159               MOVW    R11:R10, R19:R18
   \   0000000A   016A               MOVW    R13:R12, R21:R20
   \   0000000C   017B               MOVW    R15:R14, R23:R22
     42            unsigned char aux[20];
     43            int index = 0;
   \   0000000E   E000               LDI     R16, 0
   \   00000010   E010               LDI     R17, 0
   \   00000012   8308               ST      Y, R16
   \   00000014   8319               STD     Y+1, R17
     44            while(n)
   \                     ??USART_transmit_ulonglong_0:
   \   00000016   0184               MOVW    R17:R16, R9:R8
   \   00000018   0195               MOVW    R19:R18, R11:R10
   \   0000001A   01A6               MOVW    R21:R20, R13:R12
   \   0000001C   01B7               MOVW    R23:R22, R15:R14
   \   0000001E   0108               MOVW    R1:R0, R17:R16
   \   00000020   0119               MOVW    R3:R2, R19:R18
   \   00000022   012A               MOVW    R5:R4, R21:R20
   \   00000024   013B               MOVW    R7:R6, R23:R22
   \   00000026   ....               LDI     R30, LOW(__Constant_0_0)
   \   00000028   ....               LDI     R31, (__Constant_0_0) >> 8
   \   0000002A   0180               MOVW    R17:R16, R1:R0
   \   0000002C   0191               MOVW    R19:R18, R3:R2
   \   0000002E   01A2               MOVW    R21:R20, R5:R4
   \   00000030   01B3               MOVW    R23:R22, R7:R6
   \   00000032   ........           CALL    ?LL_CMP_L12
   \   00000036   F159               BREQ    ??USART_transmit_ulonglong_1
     45            {
     46              aux[index++] = n % 10 + '0';
   \   00000038   0184               MOVW    R17:R16, R9:R8
   \   0000003A   0195               MOVW    R19:R18, R11:R10
   \   0000003C   01A6               MOVW    R21:R20, R13:R12
   \   0000003E   01B7               MOVW    R23:R22, R15:R14
   \   00000040   0108               MOVW    R1:R0, R17:R16
   \   00000042   0119               MOVW    R3:R2, R19:R18
   \   00000044   012A               MOVW    R5:R4, R21:R20
   \   00000046   013B               MOVW    R7:R6, R23:R22
   \   00000048   ....               LDI     R26, LOW(__Constant_a_0)
   \   0000004A   ....               LDI     R27, (__Constant_a_0) >> 8
   \   0000004C   0180               MOVW    R17:R16, R1:R0
   \   0000004E   0191               MOVW    R19:R18, R3:R2
   \   00000050   01A2               MOVW    R21:R20, R5:R4
   \   00000052   01B3               MOVW    R23:R22, R7:R6
   \   00000054   ........           CALL    ?ULL_MOD_L12
   \   00000058   5D00               SUBI    R16, 208
   \   0000005A   01FE               MOVW    R31:R30, R29:R28
   \   0000005C   9632               ADIW    R31:R30, 2
   \   0000005E   8128               LD      R18, Y
   \   00000060   8139               LDD     R19, Y+1
   \   00000062   0FE2               ADD     R30, R18
   \   00000064   1FF3               ADC     R31, R19
   \   00000066   8300               ST      Z, R16
   \   00000068   8108               LD      R16, Y
   \   0000006A   8119               LDD     R17, Y+1
   \   0000006C   5F0F               SUBI    R16, 255
   \   0000006E   4F1F               SBCI    R17, 255
   \   00000070   8308               ST      Y, R16
   \   00000072   8319               STD     Y+1, R17
     47              n /= 10; 
   \   00000074   0184               MOVW    R17:R16, R9:R8
   \   00000076   0195               MOVW    R19:R18, R11:R10
   \   00000078   01A6               MOVW    R21:R20, R13:R12
   \   0000007A   01B7               MOVW    R23:R22, R15:R14
   \   0000007C   ....               LDI     R26, LOW(__Constant_a_0)
   \   0000007E   ....               LDI     R27, (__Constant_a_0) >> 8
   \   00000080   ........           CALL    ?ULL_DIV_L12
   \   00000084   0148               MOVW    R9:R8, R17:R16
   \   00000086   0159               MOVW    R11:R10, R19:R18
   \   00000088   016A               MOVW    R13:R12, R21:R20
   \   0000008A   017B               MOVW    R15:R14, R23:R22
   \   0000008C   CFC4               RJMP    ??USART_transmit_ulonglong_0
     48            }
     49            index--;
   \                     ??USART_transmit_ulonglong_1:
   \   0000008E   8108               LD      R16, Y
   \   00000090   8119               LDD     R17, Y+1
   \   00000092   5001               SUBI    R16, 1
   \   00000094   4010               SBCI    R17, 0
   \   00000096   8308               ST      Y, R16
   \   00000098   8319               STD     Y+1, R17
     50            while(index >= 0)
   \                     ??USART_transmit_ulonglong_2:
   \   0000009A   8108               LD      R16, Y
   \   0000009C   8119               LDD     R17, Y+1
   \   0000009E   2311               TST     R17
   \   000000A0   F07A               BRMI    ??USART_transmit_ulonglong_3
     51            {
     52              USART_transmit(aux[index--]);
   \   000000A2   01FE               MOVW    R31:R30, R29:R28
   \   000000A4   9632               ADIW    R31:R30, 2
   \   000000A6   8108               LD      R16, Y
   \   000000A8   8119               LDD     R17, Y+1
   \   000000AA   0FE0               ADD     R30, R16
   \   000000AC   1FF1               ADC     R31, R17
   \   000000AE   8100               LD      R16, Z
   \   000000B0   ....               RCALL   USART_transmit
   \   000000B2   8108               LD      R16, Y
   \   000000B4   8119               LDD     R17, Y+1
   \   000000B6   5001               SUBI    R16, 1
   \   000000B8   4010               SBCI    R17, 0
   \   000000BA   8308               ST      Y, R16
   \   000000BC   8319               STD     Y+1, R17
   \   000000BE   CFED               RJMP    ??USART_transmit_ulonglong_2
     53            }
     54          }
   \                     ??USART_transmit_ulonglong_3:
   \   000000C0   9666               ADIW    R29:R28, 22
   \   000000C2   E1E0               LDI     R30, 16
   \   000000C4   ........           JMP     ?EPILOGUE_B16_L09
     55          

   \                                 In  segment CODE, align 2, keep-with-next
     56          void hexadecimalTransmit(unsigned int numarDecimal)
   \                     hexadecimalTransmit:
     57          {
   \   00000000   ........           CALL    ?PROLOGUE16_L09
   \   00000004                      REQUIRE ?Register_R4_is_cg_reg
   \   00000004                      REQUIRE ?Register_R5_is_cg_reg
   \   00000004                      REQUIRE ?Register_R6_is_cg_reg
   \   00000004                      REQUIRE ?Register_R7_is_cg_reg
   \   00000004                      REQUIRE ?Register_R8_is_cg_reg
   \   00000004                      REQUIRE ?Register_R9_is_cg_reg
   \   00000004                      REQUIRE ?Register_R10_is_cg_reg
   \   00000004                      REQUIRE ?Register_R11_is_cg_reg
   \   00000004                      REQUIRE ?Register_R12_is_cg_reg
   \   00000004                      REQUIRE ?Register_R13_is_cg_reg
   \   00000004                      REQUIRE ?Register_R14_is_cg_reg
   \   00000004                      REQUIRE ?Register_R15_is_cg_reg
   \   00000004   9729               SBIW    R29:R28, 9
   \   00000006   8308               ST      Y, R16
   \   00000008   8319               STD     Y+1, R17
     58            unsigned int numarCaractere = 0;
   \   0000000A   2466               CLR     R6
   \   0000000C   2477               CLR     R7
     59            unsigned int auxaux = numarDecimal;
   \   0000000E   81A8               LD      R26, Y
   \   00000010   81B9               LDD     R27, Y+1
     60            while(auxaux != 0)
   \                     ??hexadecimalTransmit_0:
   \   00000012   2F0A               MOV     R16, R26
   \   00000014   2B0B               OR      R16, R27
   \   00000016   F059               BREQ    ??hexadecimalTransmit_1
     61            {
     62              numarCaractere++;
   \   00000018   E001               LDI     R16, 1
   \   0000001A   0E60               ADD     R6, R16
   \   0000001C   E000               LDI     R16, 0
   \   0000001E   1E70               ADC     R7, R16
     63              auxaux /= 10;
   \   00000020   E04A               LDI     R20, 10
   \   00000022   E050               LDI     R21, 0
   \   00000024   018D               MOVW    R17:R16, R27:R26
   \   00000026   ........           CALL    ?US_DIVMOD_L02
   \   0000002A   01D8               MOVW    R27:R26, R17:R16
   \   0000002C   CFF2               RJMP    ??hexadecimalTransmit_0
     64            } 
     65            
     66            long long x = numarDecimal;
   \                     ??hexadecimalTransmit_1:
   \   0000002E   8088               LD      R8, Y
   \   00000030   8099               LDD     R9, Y+1
   \   00000032   24AA               CLR     R10
   \   00000034   24BB               CLR     R11
   \   00000036   24CC               CLR     R12
   \   00000038   24DD               CLR     R13
   \   0000003A   24EE               CLR     R14
   \   0000003C   24FF               CLR     R15
     67            int index=0;
   \   0000003E   2444               CLR     R4
   \   00000040   2455               CLR     R5
     68            USART_transmit('0');
   \   00000042   E300               LDI     R16, 48
   \   00000044   ....               RCALL   USART_transmit
     69            USART_transmit('x');
   \   00000046   E708               LDI     R16, 120
   \   00000048   ....               RCALL   USART_transmit
     70            unsigned char aux[7];
     71            while(x!=0)
   \                     ??hexadecimalTransmit_2:
   \   0000004A   0184               MOVW    R17:R16, R9:R8
   \   0000004C   0195               MOVW    R19:R18, R11:R10
   \   0000004E   01A6               MOVW    R21:R20, R13:R12
   \   00000050   01B7               MOVW    R23:R22, R15:R14
   \   00000052   0148               MOVW    R9:R8, R17:R16
   \   00000054   0159               MOVW    R11:R10, R19:R18
   \   00000056   016A               MOVW    R13:R12, R21:R20
   \   00000058   017B               MOVW    R15:R14, R23:R22
   \   0000005A   ....               LDI     R30, LOW(__Constant_0_0)
   \   0000005C   ....               LDI     R31, (__Constant_0_0) >> 8
   \   0000005E   0184               MOVW    R17:R16, R9:R8
   \   00000060   0195               MOVW    R19:R18, R11:R10
   \   00000062   01A6               MOVW    R21:R20, R13:R12
   \   00000064   01B7               MOVW    R23:R22, R15:R14
   \   00000066   ........           CALL    ?LL_CMP_L12
   \   0000006A   F181               BREQ    ??hexadecimalTransmit_3
     72            {
     73              aux[index]=x&0x0F;
   \   0000006C   0184               MOVW    R17:R16, R9:R8
   \   0000006E   0195               MOVW    R19:R18, R11:R10
   \   00000070   2F10               MOV     R17, R16
   \   00000072   701F               ANDI    R17, 0x0F
   \   00000074   01FE               MOVW    R31:R30, R29:R28
   \   00000076   9632               ADIW    R31:R30, 2
   \   00000078   0DE4               ADD     R30, R4
   \   0000007A   1DF5               ADC     R31, R5
   \   0000007C   8310               ST      Z, R17
     74              if(aux[index]<=9)
   \   0000007E   01FE               MOVW    R31:R30, R29:R28
   \   00000080   9632               ADIW    R31:R30, 2
   \   00000082   0DE4               ADD     R30, R4
   \   00000084   1DF5               ADC     R31, R5
   \   00000086   8100               LD      R16, Z
   \   00000088   300A               CPI     R16, 10
   \   0000008A   F440               BRCC    ??hexadecimalTransmit_4
     75              {
     76                aux[index]+='0';
   \   0000008C   01FE               MOVW    R31:R30, R29:R28
   \   0000008E   9632               ADIW    R31:R30, 2
   \   00000090   0DE4               ADD     R30, R4
   \   00000092   1DF5               ADC     R31, R5
   \   00000094   8100               LD      R16, Z
   \   00000096   5D00               SUBI    R16, 208
   \   00000098   8300               ST      Z, R16
   \   0000009A   C007               RJMP    ??hexadecimalTransmit_5
     77              }
     78              else
     79              {
     80                aux[index]=aux[index]+'A'-10;
   \                     ??hexadecimalTransmit_4:
   \   0000009C   01FE               MOVW    R31:R30, R29:R28
   \   0000009E   9632               ADIW    R31:R30, 2
   \   000000A0   0DE4               ADD     R30, R4
   \   000000A2   1DF5               ADC     R31, R5
   \   000000A4   8100               LD      R16, Z
   \   000000A6   5C09               SUBI    R16, 201
   \   000000A8   8300               ST      Z, R16
     81              }
     82              index++;
   \                     ??hexadecimalTransmit_5:
   \   000000AA   E001               LDI     R16, 1
   \   000000AC   0E40               ADD     R4, R16
   \   000000AE   E000               LDI     R16, 0
   \   000000B0   1E50               ADC     R5, R16
     83              x>>=4;
   \   000000B2   E0E4               LDI     R30, 4
   \   000000B4   0184               MOVW    R17:R16, R9:R8
   \   000000B6   0195               MOVW    R19:R18, R11:R10
   \   000000B8   01A6               MOVW    R21:R20, R13:R12
   \   000000BA   01B7               MOVW    R23:R22, R15:R14
   \   000000BC   2F8E               MOV     R24, R30
   \   000000BE   ........           CALL    ?SLL_SHR_L12
   \   000000C2   0148               MOVW    R9:R8, R17:R16
   \   000000C4   0159               MOVW    R11:R10, R19:R18
   \   000000C6   016A               MOVW    R13:R12, R21:R20
   \   000000C8   017B               MOVW    R15:R14, R23:R22
   \   000000CA   CFBF               RJMP    ??hexadecimalTransmit_2
     84            }
     85            while(numarCaractere>0 && index>0)
   \                     ??hexadecimalTransmit_3:
   \   000000CC   2D06               MOV     R16, R6
   \   000000CE   2907               OR      R16, R7
   \   000000D0   F0A9               BREQ    ??hexadecimalTransmit_6
   \   000000D2   E001               LDI     R16, 1
   \   000000D4   1640               CP      R4, R16
   \   000000D6   E000               LDI     R16, 0
   \   000000D8   0650               CPC     R5, R16
   \   000000DA   F084               BRLT    ??hexadecimalTransmit_6
     86            {
     87              USART_transmit(aux[index-1]);
   \   000000DC   01FE               MOVW    R31:R30, R29:R28
   \   000000DE   9632               ADIW    R31:R30, 2
   \   000000E0   0DE4               ADD     R30, R4
   \   000000E2   1DF5               ADC     R31, R5
   \   000000E4   9731               SBIW    R31:R30, 1
   \   000000E6   8100               LD      R16, Z
   \   000000E8   ....               RCALL   USART_transmit
     88              index--;
   \   000000EA   EF0F               LDI     R16, 255
   \   000000EC   0E40               ADD     R4, R16
   \   000000EE   EF0F               LDI     R16, 255
   \   000000F0   1E50               ADC     R5, R16
     89              numarCaractere--;
   \   000000F2   EF0F               LDI     R16, 255
   \   000000F4   0E60               ADD     R6, R16
   \   000000F6   EF0F               LDI     R16, 255
   \   000000F8   1E70               ADC     R7, R16
   \   000000FA   CFE8               RJMP    ??hexadecimalTransmit_3
     90            }
     91          }
   \                     ??hexadecimalTransmit_6:
   \   000000FC   9629               ADIW    R29:R28, 9
   \   000000FE   E1E0               LDI     R30, 16
   \   00000100   ........           JMP     ?EPILOGUE_B16_L09

   \                                 In  segment NEAR_ID, align 1, keep-with-next
   \                     `?<Initializer for 64 Bit Constant>_0`:
   \   00000000   000000000000       DD 0, 0
   \              0000        

   \                                 In  segment NEAR_I, align 1, keep-with-next
   \   00000000                      REQUIRE `?<Segment init: NEAR_I>`
   \                     __Constant_0_0:
   \   00000000                      DS8 8
   \   00000008                      REQUIRE `?<Initializer for 64 Bit Constant>_0`

   \                                 In  segment NEAR_ID, align 1, keep-with-next
   \                     `?<Initializer for 64 Bit Constant>_1`:
   \   00000000   000A00000000       DD 10, 0
   \              0000        

   \                                 In  segment NEAR_I, align 1, keep-with-next
   \   00000000                      REQUIRE `?<Segment init: NEAR_I>`
   \                     __Constant_a_0:
   \   00000000                      DS8 8
   \   00000008                      REQUIRE `?<Initializer for 64 Bit Constant>_1`

   Maximum stack usage in bytes:

   CSTACK RSTACK Function
   ------ ------ --------
       0      2  USART_init
       0      2  USART_receive
       0      2  USART_transmit
      20      4  USART_transmit_uint
                   20 2 -> USART_transmit
      38      4  USART_transmit_ulonglong
                   38 2 -> USART_transmit
      25      4  hexadecimalTransmit
                   25 2 -> USART_transmit


   Segment part sizes:

   Bytes  Function/Label
   -----  --------------
       8  ?<Initializer for 64 Bit Constant>_0
       8  ?<Initializer for 64 Bit Constant>_1
      22  USART_init
       8  USART_receive
       8  USART_transmit
      82  USART_transmit_uint
     200  USART_transmit_ulonglong
       1  _A_UBRRH
       1  _A_UBRRL
       1  _A_UCSRA
       1  _A_UCSRB
       1  _A_UDR
       8  __Constant_0_0
       8  __Constant_a_0
     260  hexadecimalTransmit
       6  -- Other

 
   5 bytes in segment ABSOLUTE
 580 bytes in segment CODE
   6 bytes in segment INITTAB
  16 bytes in segment NEAR_I
  16 bytes in segment NEAR_ID
 
 580 bytes of CODE memory (+ 22 bytes shared)
   0 bytes of DATA memory (+ 21 bytes shared)

Errors: none
Warnings: none
